ID        OrigAddr  IBTA      NewAddr   FuncID    Disassembly
2432      0         0         40750a    b0        ret 
2433      0         0         407b73    b3        push r14
2434      0         0         402a0e    99        ret 
2428      0         0         401c7a    9c        ret 
242a      0         0         402df0    ad        push r15
2420      0         0         402c74    9c        push r14
2423      0         0         4066a8    9d        ret 
2424      0         0         4053aa    1         ret 
242b      0         0         402d5b    ad        ret 
242d      0         0         4018ad    ae        ret 
2421      0         0         402b88    9d        push rbp
242e      0         0         4018cb    ae        ret 
242f      0         0         40764d    b0        push r12
2431      0         0         401ec2    b5        jmp 0xffffffffffffe44d
ffffffff  0         0         401b2b    ffffffff  jmp 5
2422      0         0         406743    9e        ret 
2425      0         0         401693    9b        ret 
2426      0         0         4070e7    1         sub rsp, 8
2427      0         0         407be0    9b        push r14
2435      0         0         407bbe    9a        mov eax, dword [rsi]
0         401598    401598    4070e0    1         xor dword [rsp], 0x15d2eb7f
20        0         0         40335a    7         jmp qword [6 + 0x204458]
22        4015f6    0         40159d    8         push 2
24        4015fb    0         4015a2    8         jmp 0x4015c0
26        0         0         407b5a    9         jmp qword [6 + 0x1ffc60]
2         0         0         4070eb    1         mov rax, qword [7 + 0x200696]
4         4015a3    0         4070f2    1         test rax, rax
1a        0         0         40349d    5         jmp qword [6 + 0x20430d]
1c        4015e6    0         404952    6         push 1
1e        4015eb    0         404957    6         jmp 0x4015c0
14        0         0         40365d    3         jmp qword [6 + 0x204145]
16        4015d6    0         405395    4         push 0
18        4015db    0         40539a    4         jmp 0x4015c0
6         4015a6    0         4070f5    1         je 0x4015ad
8         4015a8    0         4070fb    1         call 0x401830
a         4015ad    0         40539f    1         add rsp, 8
22a7      0         0         404a1b    ffffffff  jmp 0xffffffffffffff73
2436      0         0         402aaf    99        ret 
2437      0         0         402b2e    99        push r12
c         4015b1    0         4053a3    1         xor dword [rsp], 0x15d2eb7f
e         0         0         4029d0    2         push qword [6 + 0x204dc2]
10        0         0         4029d6    2         jmp qword [6 + 0x204dc4]
28        401606    0         401a7a    a         push 3
2a        40160b    0         401a7f    a         jmp 0x4015c0
2c        0         0         402afc    b         jmp qword [6 + 0x204cc6]
2e        401616    0         401b37    c         push 4
30        40161b    0         401b3c    c         jmp 0x4015c0
32        0         0         402bb6    d         jmp qword [6 + 0x204c14]
34        401626    0         404965    e         push 5
36        40162b    0         40496a    e         jmp 0x4015c0
38        0         0         4032f8    f         jmp qword [6 + 0x2044da]
3a        401636    0         4053ab    10        push 6
3c        40163b    0         4053b0    10        jmp 0x4015c0
3e        0         0         402ca2    11        jmp qword [6 + 0x204b38]
40        401646    0         4065a0    12        push 7
42        40164b    0         4065a5    12        jmp 0x4015c0
44        0         0         403471    13        jmp qword [6 + 0x204371]
46        401656    0         4053b5    14        push 8
48        40165b    0         4053ba    14        jmp 0x4015c0
4a        0         0         4076a3    15        jmp qword [6 + 0x200147]
4c        401666    0         405409    16        push 9
4e        40166b    0         40540e    16        jmp 0x4015c0
50        0         0         4071be    17        jmp qword [6 + 0x200634]
52        401676    0         401b41    18        push 0xa
54        40167b    0         401b46    18        jmp 0x4015c0
56        0         0         403313    19        jmp qword [6 + 0x2044e7]
58        401686    0         4053bf    1a        push 0xb
5a        40168b    0         4053c4    1a        jmp 0x4015c0
5c        0         0         402b6f    1b        jmp qword [6 + 0x204c93]
5e        401696    0         4053c9    1c        push 0xc
60        40169b    0         4053ce    1c        jmp 0x4015c0
62        0         0         402a0f    1d        jmp qword [6 + 0x204dfb]
64        4016a6    0         40496f    1e        push 0xd
66        4016ab    0         404974    1e        jmp 0x4015c0
68        0         0         407d0e    1f        jmp qword [6 + 0x1ffb04]
6a        4016b6    0         4015a7    20        push 0xe
6c        4016bb    0         4015ac    20        jmp 0x4015c0
6e        0         0         403491    21        jmp qword [6 + 0x204389]
70        4016c6    0         401a84    22        push 0xf
72        4016cb    0         401a89    22        jmp 0x4015c0
74        0         0         4032c2    23        jmp qword [6 + 0x204560]
76        4016d6    0         401a8e    24        push 0x10
78        4016db    0         401a93    24        jmp 0x4015c0
7a        0         0         403354    25        jmp qword [6 + 0x2044d6]
7c        4016e6    0         4053d3    26        push 0x11
7e        4016eb    0         4053d8    26        jmp 0x4015c0
80        0         0         4071a0    27        jmp qword [6 + 0x200692]
82        4016f6    0         404979    28        push 0x12
84        4016fb    0         40497e    28        jmp 0x4015c0
86        0         0         4032e2    29        jmp qword [6 + 0x204558]
88        401706    0         4053dd    2a        push 0x13
8a        40170b    0         4053e2    2a        jmp 0x4015c0
8c        0         0         403497    2b        jmp qword [6 + 0x2043ab]
8e        401716    0         404983    2c        push 0x14
90        40171b    0         404988    2c        jmp 0x4015c0
92        0         0         407afa    2d        jmp qword [6 + 0x1ffd50]
94        401726    0         40498d    2e        push 0x15
96        40172b    0         404992    2e        jmp 0x4015c0
98        0         0         402e99    2f        jmp qword [6 + 0x2049b9]
9a        401736    0         4015b1    30        push 0x16
9c        40173b    0         4015b6    30        jmp 0x4015c0
9e        0         0         4030bc    31        jmp qword [6 + 0x20479e]
a0        401746    0         4065aa    32        push 0x17
a2        40174b    0         4065af    32        jmp 0x4015c0
a4        0         0         407c28    33        jmp qword [6 + 0x1ffc3a]
a6        401756    0         405413    34        push 0x18
a8        40175b    0         405418    34        jmp 0x4015c0
aa        0         0         40769d    35        jmp qword [6 + 0x2001cd]
ac        401766    0         404997    36        push 0x19
ae        40176b    0         40499c    36        jmp 0x4015c0
b0        0         0         402eba    37        jmp qword [6 + 0x2049b8]
b2        401776    0         4049a1    38        push 0x1a
b4        40177b    0         4049a6    38        jmp 0x4015c0
b6        0         0         402b75    39        jmp qword [6 + 0x204d05]
b8        401786    0         4015bb    3a        push 0x1b
ba        40178b    0         4015c0    3a        jmp 0x4015c0
bc        0         0         407c22    3b        jmp qword [6 + 0x1ffc60]
be        401796    0         4049ab    3c        push 0x1c
c0        40179b    0         4049b0    3c        jmp 0x4015c0
c2        0         0         407c8e    3d        jmp qword [6 + 0x1ffbfc]
c4        4017a6    0         401b4b    3e        push 0x1d
c6        4017ab    0         401b50    3e        jmp 0x4015c0
c8        0         0         40754b    3f        jmp qword [6 + 0x200347]
ca        4017b6    0         401a98    40        push 0x1e
cc        4017bb    0         401a9d    40        jmp 0x4015c0
ce        0         0         4033a3    41        jmp qword [6 + 0x2044f7]
d0        4017c6    0         4049b5    42        push 0x1f
d2        4017cb    0         4049ba    42        jmp 0x4015c0
d4        0         0         407964    43        jmp qword [6 + 0x1fff3e]
d6        4017d6    0         401b55    44        push 0x20
d8        4017db    0         401b5a    44        jmp 0x4015c0
da        0         0         407945    45        jmp qword [6 + 0x1fff65]
dc        4017e6    0         401aa2    46        push 0x21
de        4017eb    0         401aa7    46        jmp 0x4015c0
e0        0         0         407458    47        jmp qword [6 + 0x20045a]
e2        4017f6    0         4065b4    48        push 0x22
e4        4017fb    0         4065b9    48        jmp 0x4015c0
e6        0         0         403395    49        jmp qword [6 + 0x204525]
e8        401806    0         4015c5    4a        push 0x23
ea        40180b    0         4015ca    4a        jmp 0x4015c0
ec        0         0         402b21    4b        jmp qword [6 + 0x204da1]
ee        401816    0         401aac    4c        push 0x24
f0        40181b    0         401ab1    4c        jmp 0x4015c0
f2        0         0         407b1b    4d        jmp qword [6 + 0x1ffdaf]
f4        401826    0         4015cf    4e        push 0x25
f6        40182b    0         4015d4    4e        jmp 0x4015c0
f8        0         0         407b66    4f        jmp qword [6 + 0x1ffd6c]
fa        401836    0         4065be    50        push 0x26
fc        40183b    0         4065c3    50        jmp 0x4015c0
fe        0         0         40334e    51        jmp qword [6 + 0x20458c]
100       401846    0         401ab6    52        push 0x27
102       40184b    0         401abb    52        jmp 0x4015c0
104       0         0         40360b    53        jmp qword [6 + 0x2042d7]
106       401856    0         401ac0    54        push 0x28
108       40185b    0         401ac5    54        jmp 0x4015c0
10a       0         0         4071c4    55        jmp qword [6 + 0x200726]
10c       401866    0         401b5f    56        push 0x29
10e       40186b    0         401b64    56        jmp 0x4015c0
110       0         0         4033a9    57        jmp qword [6 + 0x204549]
112       401876    0         4015d9    58        push 0x2a
114       40187b    0         4015de    58        jmp 0x4015c0
116       0         0         0         59        jmp qword [6 + 0x6078fa]
118       401886    0         401aca    5a        push 0x2b
11a       40188b    0         401acf    5a        jmp 0x4015c0
11c       0         0         4072d4    5b        jmp qword [6 + 0x20062e]
11e       401896    0         401ad4    5c        push 0x2c
120       40189b    0         401ad9    5c        jmp 0x4015c0
122       0         0         407321    5d        jmp qword [6 + 0x2005e9]
124       4018a6    0         401ade    5e        push 0x2d
126       4018ab    0         401ae3    5e        jmp 0x4015c0
128       0         0         40732d    5f        jmp qword [6 + 0x2005e5]
12a       4018b6    0         4053e7    60        push 0x2e
12c       4018bb    0         4053ec    60        jmp 0x4015c0
12e       0         0         4032e8    61        jmp qword [6 + 0x204632]
130       4018c6    0         4049bf    62        push 0x2f
132       4018cb    0         4049c4    62        jmp 0x4015c0
134       0         0         407c54    63        jmp qword [6 + 0x1ffcce]
136       4018d6    0         4049c9    64        push 0x30
138       4018db    0         4049ce    64        jmp 0x4015c0
13a       0         0         40718b    65        jmp qword [6 + 0x20079f]
13c       4018e6    0         401b69    66        push 0x31
13e       4018eb    0         401b6e    66        jmp 0x4015c0
140       0         0         4078ef    67        jmp qword [6 + 0x200043]
142       4018f6    0         401ae8    68        push 0x32
144       4018fb    0         401aed    68        jmp 0x4015c0
146       0         0         402e18    69        jmp qword [6 + 0x204b22]
148       401906    0         4053f1    6a        push 0x33
14a       40190b    0         4053f6    6a        jmp 0x4015c0
14c       0         0         4072e0    6b        jmp qword [6 + 0x200662]
14e       401916    0         401af2    6c        push 0x34
150       40191b    0         401af7    6c        jmp 0x4015c0
152       0         0         407bb1    6d        jmp qword [6 + 0x1ffd99]
154       401926    0         401afc    6e        push 0x35
156       40192b    0         401b01    6e        jmp 0x4015c0
158       0         0         403151    6f        jmp qword [6 + 0x204801]
15a       401936    0         4049d3    70        push 0x36
15c       40193b    0         4049d8    70        jmp 0x4015c0
15e       0         0         402b7b    71        jmp qword [6 + 0x204ddf]
160       401946    0         4065c8    72        push 0x37
162       40194b    0         4065cd    72        jmp 0x4015c0
164       0         0         407abc    73        jmp qword [6 + 0x1ffea6]
166       401956    0         4049dd    74        push 0x38
168       40195b    0         4049e2    74        jmp 0x4015c0
16a       0         0         407551    75        jmp qword [6 + 0x200419]
16c       401966    0         4049e7    76        push 0x39
16e       40196b    0         4049ec    76        jmp 0x4015c0
170       0         0         4072da    77        jmp qword [6 + 0x200698]
172       401976    0         4065d2    78        push 0x3a
174       40197b    0         4065d7    78        jmp 0x4015c0
176       0         0         402ade    79        jmp qword [6 + 0x204e9c]
178       401986    0         401b06    7a        push 0x3b
17a       40198b    0         401b0b    7a        jmp 0x4015c0
17c       0         0         40338f    7b        jmp qword [6 + 0x2045f3]
17e       401996    0         401b73    7c        push 0x3c
180       40199b    0         401b78    7c        jmp 0x4015c0
182       0         0         407b15    7d        jmp qword [6 + 0x1ffe75]
184       4019a6    0         4049f1    7e        push 0x3d
186       4019ab    0         4049f6    7e        jmp 0x4015c0
188       0         0         402bbc    7f        jmp qword [6 + 0x204dd6]
18a       4019b6    0         4065dc    80        push 0x3e
18c       4019bb    0         4065e1    80        jmp 0x4015c0
18e       0         0         407333    81        jmp qword [6 + 0x200667]
190       4019c6    0         401b7d    82        push 0x3f
192       4019cb    0         401b82    82        jmp 0x4015c0
194       0         0         4034a3    83        jmp qword [6 + 0x2044ff]
196       4019d6    0         401b87    84        push 0x40
198       4019db    0         401b8c    84        jmp 0x4015c0
19a       0         0         407b60    85        jmp qword [6 + 0x1ffe4a]
19c       4019e6    0         4015e3    86        push 0x41
19e       4019eb    0         4015e8    86        jmp 0x4015c0
1a0       0         0         4076a9    87        jmp qword [6 + 0x200309]
1a2       4019f6    0         4015ed    88        push 0x42
1a4       4019fb    0         4015f2    88        jmp 0x4015c0
1a6       0         0         4033c1    89        jmp qword [6 + 0x2045f9]
1a8       401a06    0         4015f7    8a        push 0x43
1aa       401a0b    0         4015fc    8a        jmp 0x4015c0
1ac       0         0         402b02    8b        jmp qword [6 + 0x204ec0]
1ae       401a16    0         401601    8c        push 0x44
1b0       401a1b    0         401606    8c        jmp 0x4015c0
1b2       0         0         407327    8d        jmp qword [6 + 0x2006a3]
1b4       401a26    0         401b91    8e        push 0x45
1b6       401a2b    0         401b96    8e        jmp 0x4015c0
1b8       0         0         4031f9    8f        jmp qword [6 + 0x2047d9]
1ba       401a36    0         401b9b    90        push 0x46
1bc       401a3b    0         401ba0    90        jmp 0x4015c0
1be       0         0         407702    91        jmp qword [6 + 0x2002d8]
1c0       401a46    0         401b10    92        push 0x47
1c2       401a4b    0         401b15    92        jmp 0x4015c0
1c4       0         0         403643    93        jmp qword [6 + 0x20439f]
1c6       401a56    0         401ba5    94        push 0x48
1c8       401a5b    0         401baa    94        jmp 0x4015c0
1ca       0         0         403625    95        jmp qword [6 + 0x2043c5]
1cc       401a66    0         4049fb    96        push 0x49
1ce       401a6b    0         404a00    96        jmp 0x4015c0
1d0       401a70    401a70    40296b    97        jmp 0x402f40
1d2       401a75    401a75    402970    98        xor ebp, ebp
1d4       401a77    0         402972    98        mov r9, rdx
1d6       401a7a    0         402975    98        pop rsi
1d8       401a7b    0         402976    98        mov rdx, rsp
1da       401a7e    0         402979    98        and rsp, 0xfffffffffffffff0
1dc       401a82    0         40297d    98        push rax
1de       401a83    0         40297e    98        push rsp
1e0       401a84    0         40297f    98        mov r8, 0x405400
1e2       401a8b    0         402986    98        mov rcx, 0x405390
1e4       401a92    0         40298d    98        mov rdi, 0x401a70
1e6       401a99    0         402994    98        call 0x4017c0
1e8       401a9e    0         401baf    98        hlt 
1ea       401a9f    0         401bb0    ffffffff  nop 
1ec       401aa0    0         401bb1    ffffffff  mov eax, 0x607a0f
1ee       401aa5    0         401bb6    ffffffff  push rbp
1f0       401aa6    0         401bb7    ffffffff  sub rax, 0x607a08
1f2       401aac    0         401bbd    ffffffff  cmp rax, 0xe
1f4       401ab0    0         401bc1    ffffffff  mov rbp, rsp
1f6       401ab3    0         401bc4    ffffffff  jbe 0x401ad0
1f8       401ab5    0         401bca    ffffffff  mov eax, 0
1fa       401aba    0         401bcf    ffffffff  test rax, rax
1fc       401abd    0         401bd2    ffffffff  je 0x401ad0
1fe       401abf    0         401bd8    ffffffff  pop rbp
200       401ac0    0         401bd9    ffffffff  mov edi, 0x607a08
202       401ac5    0         401bde    ffffffff  jmp rax
206       401ad0    0         4029dc    ffffffff  pop rbp
208       401ad1    0         4029dd    ffffffff  ret 
20c       401ae0    0         40714e    ffffffff  mov esi, 0x607a08
20e       401ae5    0         407153    ffffffff  push rbp
210       401ae6    0         407154    ffffffff  sub rsi, 0x607a08
212       401aed    0         40715b    ffffffff  sar rsi, 3
214       401af1    0         40715f    ffffffff  mov rbp, rsp
216       401af4    0         407162    ffffffff  mov rax, rsi
218       401af7    0         407165    ffffffff  shr rax, 0x3f
21a       401afb    0         407169    ffffffff  add rsi, rax
21c       401afe    0         40716c    ffffffff  sar rsi, 1
21e       401b01    0         40716f    ffffffff  je 0x401b18
220       401b03    0         407175    ffffffff  mov eax, 0
222       401b08    0         40717a    ffffffff  test rax, rax
224       401b0b    0         40717d    ffffffff  je 0x401b18
226       401b0d    0         407183    ffffffff  pop rbp
228       401b0e    0         407184    ffffffff  mov edi, 0x607a08
22a       401b13    0         407189    ffffffff  jmp rax
22e       401b18    0         407b9c    ffffffff  pop rbp
230       401b19    0         407b9d    ffffffff  ret 
234       0         0         404a05    ffffffff  cmp byte [7 + 0x20304c], 0
236       401b27    0         404a0c    ffffffff  jne 0x401b3a
238       401b29    0         404a12    ffffffff  push rbp
23a       401b2a    0         404a13    ffffffff  mov rbp, rsp
23c       401b2d    0         404a16    ffffffff  push 0x401b32
23e       401b32    401b32    407105    ffffffff  pop rbp
240       0         0         407106    ffffffff  mov byte [7 + 0x20094b], 1
242       401b3a    0         40710d    ffffffff  ret 
246       401b40    0         40160b    ffffffff  mov edi, 0x607590
248       401b45    0         401610    ffffffff  cmp qword [rdi], 0
24a       401b49    0         401614    ffffffff  jne 0x401b50
24c       401b4b    0         40161a    ffffffff  jmp 0x401ae0
250       401b50    0         4029de    ffffffff  mov eax, 0
252       401b55    0         4029e3    ffffffff  test rax, rax
254       401b58    0         4029e6    ffffffff  je 0x401b4b
256       401b5a    0         4029ec    ffffffff  push rbp
258       401b5b    0         4029ed    ffffffff  mov rbp, rsp
25a       401b5e    0         4029f0    ffffffff  call rax
25c       401b60    0         401b1a    ffffffff  pop rbp
25e       401b61    0         401b1b    ffffffff  jmp 0x401ae0
262       401b70    0         402b27    99        xor dword [rsp], 0x15d2eb7f
264       401b72    0         402b30    99        push rbp
266       401b73    0         402b31    99        mov rbp, rdi
268       401b76    0         402b34    99        push rbx
26a       401b77    0         402b35    99        mov ebx, esi
26c       401b79    0         402b37    99        lea esi, [rsi - 0x1058]
26e       401b7f    0         402b3d    99        xor edx, edx
270       401b81    0         402b3f    99        sub rsp, 0x1060
272       401b88    0         402b46    99        mov rdi, qword [rdi]
274       401b8b    0         402b49    99        movsxd rsi, esi
276       401b8e    0         402b4c    99        call 0x401910
278       401b93    0         404a20    99        test eax, eax
27a       401b95    0         404a22    99        jne 0x401c80
27c       401b9b    0         404a28    99        mov rcx, qword [rbp]
27e       401b9f    0         404a2c    99        mov edx, 1
280       401ba4    0         404a31    99        mov esi, 0x1058
282       401ba9    0         404a36    99        mov rdi, rsp
284       401bac    0         404a39    99        mov r12, rsp
286       401baf    0         404a3c    99        call 0x4016a0
288       401bb4    0         404a41    99        test rax, rax
28a       401bb7    0         404a44    99        je 0x401c80
28c       401bbd    0         404a4a    99        lea rdx, [rsp + 0x1000]
28e       401bc5    0         404a52    99        mov r10d, 0x405424
290       401bcb    0         404a58    99        mov r9d, 8
292       401bd1    0         404a5e    99        lea r11, [rsp - 1]
294       401bd6    0         404a63    99        jmp 0x401bed
298       401be0    0         4033af    99        sub rdx, 1
29a       401be4    0         4033b3    99        cmp rdx, r11
29c       401be7    0         4033b6    99        je 0x401c80
29e       401bed    0         402a15    99        mov rsi, r10
2a0       401bf0    0         402a18    99        mov rdi, rdx
2a2       401bf3    0         402a1b    99        mov rcx, r9
2a4       401bf6    0         402a1e    99        cmpsb byte [rsi], byte [rdi]
2a6       401bf8    0         402a20    99        seta al
2a8       401bfb    0         402a23    99        setb r8b
2aa       401bff    0         402a27    99        sub eax, r8d
2ac       401c02    0         402a2a    99        movsx eax, al
2ae       401c05    0         402a2d    99        test eax, eax
2b0       401c07    0         402a2f    99        jne 0x401be0
2b2       401c09    0         402a35    99        mov rdi, qword [rdx + 0x10]
2b4       401c0d    0         402a39    99        mov rsi, qword [rdx]
2b6       401c10    0         402a3c    99        mov qword [rbp + 0x30], rdi
2b8       401c14    0         402a40    99        mov rdi, qword [rdx + 0x18]
2ba       401c18    0         402a44    99        mov qword [rbp + 0x20], rsi
2bc       401c1c    0         402a48    99        mov rsi, qword [rdx + 8]
2be       401c20    0         402a4c    99        mov qword [rbp + 0x38], rdi
2c0       401c24    0         402a50    99        mov rdi, qword [rdx + 0x20]
2c2       401c28    0         402a54    99        mov qword [rbp + 0x28], rsi
2c4       401c2c    0         402a58    99        bswap esi
2c6       401c2e    0         402a5a    99        sub ebx, esi
2c8       401c30    0         402a5c    99        mov qword [rbp + 0x40], rdi
2ca       401c34    0         402a60    99        mov rdi, qword [rdx + 0x28]
2cc       401c38    0         402a64    99        mov qword [rbp + 0x48], rdi
2ce       401c3c    0         402a68    99        mov rdi, qword [rdx + 0x30]
2d0       401c40    0         402a6c    99        mov qword [rbp + 0x50], rdi
2d2       401c44    0         402a70    99        mov rdi, qword [rdx + 0x38]
2d4       401c48    0         402a74    99        mov qword [rbp + 0x58], rdi
2d6       401c4c    0         402a78    99        mov rdi, qword [rdx + 0x40]
2d8       401c50    0         402a7c    99        mov qword [rbp + 0x60], rdi
2da       401c54    0         402a80    99        mov rdi, qword [rdx + 0x48]
2dc       401c58    0         402a84    99        mov qword [rbp + 0x68], rdi
2de       401c5c    0         402a88    99        mov rdi, qword [rdx + 0x50]
2e0       401c60    0         402a8c    99        sub rdx, r12
2e2       401c63    0         402a8f    99        lea edx, [rbx + rdx - 0x1000]
2e4       401c6a    0         402a96    99        mov qword [rbp + 0x70], rdi
2e6       401c6e    0         402a9a    99        mov dword [rbp + 8], edx
2e8       401c71    0         402a9d    99        add rsp, 0x1060
2ea       401c78    0         402aa4    99        pop rbx
2ec       401c79    0         402aa5    99        pop rbp
2ee       401c7a    0         402aa6    99        pop r12
2f0       401c7c    0         402aa8    99        xor dword [rsp], 0x15d2eb7f
2f4       401c80    0         4029f7    99        add rsp, 0x1060
2f6       401c87    0         4029fe    99        mov eax, 0xffffffff
2f8       401c8c    0         402a03    99        pop rbx
2fa       401c8d    0         402a04    99        pop rbp
2fc       401c8e    0         402a05    99        pop r12
2fe       401c90    0         402a07    99        xor dword [rsp], 0x15d2eb7f
302       401ca0    0         407bb7    9a        xor dword [rsp], 0x15d2eb7f
304       401ca2    0         407bc0    9a        bswap eax
306       401ca4    0         407bc2    9a        mov eax, eax
308       401ca6    0         407bc4    9a        add rax, rsi
30a       401ca9    0         407bc7    9a        cmp rax, qword [rdi + 0x10]
30c       401cad    0         407bcb    9a        jb 0x401cb0
30e       401caf    0         407bd1    9a        xor dword [rsp], 0x15d2eb7f
310       401cb0    0         407cae    9a        push rbx
312       401cb1    0         407caf    9a        xor eax, eax
314       401cb3    0         407cb1    9a        mov rbx, rdi
316       401cb6    0         407cb4    9a        mov edi, 0x405500
318       401cbb    0         407cb9    9a        call 0x4023d0
31a       401cc0    0         404a68    9a        mov rax, qword [rbx + 0x18]
31c       401cc4    0         404a6c    9a        pop rbx
31e       401cc5    0         404a6d    9a        xor dword [rsp], 0x15d2eb7f
322       401cd0    0         407bd9    9b        xor dword [rsp], 0x15d2eb7f
324       401cd2    0         407be2    9b        push r13
326       401cd4    0         407be4    9b        mov r13, rsi
328       401cd7    0         407be7    9b        push r12
32a       401cd9    0         407be9    9b        push rbp
32c       401cda    0         407bea    9b        mov r12, rdi
32e       401cdd    0         407bed    9b        push rbx
330       401cde    0         407bee    9b        sub rsp, 0x70
332       401ce2    0         407bf2    9b        mov rdi, qword [rdi]
334       401ce5    0         407bf5    9b        test rdi, rdi
336       401ce8    0         407bf8    9b        je 0x401e10
338       401cee    0         4071ca    9b        mov esi, dword [r13 + 4]
33a       401cf2    0         4071ce    9b        xor edx, edx
33c       401cf4    0         4071d0    9b        bswap esi
33e       401cf6    0         4071d2    9b        add esi, dword [r12 + 8]
340       401cfb    0         4071d7    9b        call 0x401910
342       401d00    0         40161f    9b        mov ebx, dword [r13 + 8]
344       401d04    0         401623    9b        bswap ebx
346       401d06    0         401625    9b        mov ebx, ebx
348       401d08    0         401627    9b        mov rdi, rbx
34a       401d0b    0         40162a    9b        call 0x4018e0
34c       401d10    0         40162f    9b        test rax, rax
34e       401d13    0         401632    9b        mov rbp, rax
350       401d16    0         401635    9b        je 0x401e61
352       401d1c    0         40163b    9b        mov rcx, qword [r12]
354       401d20    0         40163f    9b        mov edx, 1
356       401d25    0         401644    9b        mov rsi, rbx
358       401d28    0         401647    9b        mov rdi, rbp
35a       401d2b    0         40164a    9b        call 0x4016a0
35c       401d30    0         40164f    9b        test rax, rax
35e       401d33    0         401652    9b        je 0x401e48
360       401d39    0         401658    9b        cmp byte [r13 + 0x10], 1
362       401d3e    0         40165d    9b        je 0x401d70
364       401d40    0         401663    9b        mov rdi, qword [r12]
366       401d44    0         401667    9b        test rdi, rdi
368       401d47    0         40166a    9b        je 0x401d56
36a       401d49    0         401670    9b        call 0x4016f0
36c       401d4e    0         401675    9b        mov qword [r12], 0
36e       401d56    0         40167d    9b        add rsp, 0x70
370       401d5a    0         401681    9b        mov rax, rbp
372       401d5d    0         401684    9b        pop rbx
374       401d5e    0         401685    9b        pop rbp
376       401d5f    0         401686    9b        pop r12
378       401d61    0         401688    9b        pop r13
37a       401d63    0         40168a    9b        pop r14
37c       401d65    0         40168c    9b        xor dword [rsp], 0x15d2eb7f
380       401d70    0         402ac3    9b        call 0x401a00
382       401d75    0         401694    9b        mov ebx, dword [r13 + 0xc]
384       401d79    0         401698    9b        bswap ebx
386       401d7b    0         40169a    9b        mov edi, ebx
388       401d7d    0         40169c    9b        call 0x4018e0
38a       401d82    0         4016a1    9b        test rax, rax
38c       401d85    0         4016a4    9b        mov r14, rax
38e       401d88    0         4016a7    9b        je 0x401ebb
390       401d8e    0         4016ad    9b        mov edx, dword [r13 + 8]
392       401d92    0         4016b1    9b        mov esi, 0x40544a
394       401d97    0         4016b6    9b        mov rdi, rsp
396       401d9a    0         4016b9    9b        mov qword [rsp + 0x40], 0
398       401da3    0         4016c2    9b        mov qword [rsp + 0x48], 0
39a       401dac    0         4016cb    9b        mov qword [rsp + 0x50], 0
39c       401db5    0         4016d4    9b        mov qword [rsp], rbp
39e       401db9    0         4016d8    9b        bswap edx
3a0       401dbb    0         4016da    9b        mov qword [rsp + 0x18], rax
3a2       401dc0    0         4016df    9b        mov dword [rsp + 0x20], ebx
3a4       401dc4    0         4016e3    9b        mov dword [rsp + 8], edx
3a6       401dc8    0         4016e7    9b        mov edx, 0x70
3a8       401dcd    0         4016ec    9b        call 0x401980
3aa       401dd2    0         4016f1    9b        test eax, eax
3ac       401dd4    0         4016f3    9b        js 0x401e74
3ae       401dda    0         4016f9    9b        mov esi, 4
3b0       401ddf    0         4016fe    9b        mov rdi, rsp
3b2       401de2    0         401701    9b        call 0x401670
3b4       401de7    0         401706    9b        test eax, eax
3b6       401de9    0         401708    9b        js 0x401ea6
3b8       401def    0         40170e    9b        mov rdi, rsp
3ba       401df2    0         401711    9b        call 0x401860
3bc       401df7    0         401716    9b        mov rdi, rbp
3be       401dfa    0         401719    9b        mov rbp, r14
3c0       401dfd    0         40171c    9b        call 0x401610
3c2       401e02    0         401721    9b        jmp 0x401d40
3c6       401e10    0         403649    9b        lea rdi, [r12 + 0x78]
3c8       401e15    0         40364e    9b        mov esi, 0x40542d
3ca       401e1a    0         403653    9b        call 0x4019a0
3cc       401e1f    0         404a75    9b        test rax, rax
3ce       401e22    0         404a78    9b        mov rdi, rax
3d0       401e25    0         404a7b    9b        mov qword [r12], rax
3d2       401e29    0         404a7f    9b        jne 0x401cee
3d4       401e2f    0         404a85    9b        mov edi, 0x40546b
3d6       401e34    0         404a8a    9b        xor eax, eax
3d8       401e36    0         404a8c    9b        xor ebp, ebp
3da       401e38    0         404a8e    9b        call 0x4023d0
3dc       401e3d    0         404a93    9b        jmp 0x401d56
3e0       401e48    0         407191    9b        mov edi, 0x405430
3e2       401e4d    0         407196    9b        call 0x4023d0
3e4       401e52    0         404a98    9b        mov rdi, rbp
3e6       401e55    0         404a9b    9b        xor ebp, ebp
3e8       401e57    0         404a9d    9b        call 0x401610
3ea       401e5c    0         404aa2    9b        jmp 0x401d56
3ec       401e61    0         402ab0    9b        mov edi, 0x405520
3ee       401e66    0         402ab5    9b        xor eax, eax
3f0       401e68    0         402ab7    9b        xor ebp, ebp
3f2       401e6a    0         402ab9    9b        call 0x4023d0
3f4       401e6f    0         401be0    9b        jmp 0x401d56
3f6       401e74    0         4071a6    9b        mov rdx, qword [rsp + 0x30]
3f8       401e79    0         4071ab    9b        mov esi, eax
3fa       401e7b    0         4071ad    9b        mov edi, 0x405568
3fc       401e80    0         4071b2    9b        xor eax, eax
3fe       401e82    0         4071b4    9b        call 0x4023d0
400       401e87    0         404aa7    9b        mov rdi, rbp
402       401e8a    0         404aaa    9b        xor ebp, ebp
404       401e8c    0         404aac    9b        call 0x401610
406       401e91    0         404ab1    9b        lea rsi, [r13 + 0x12]
408       401e95    0         404ab5    9b        mov edi, 0x405485
40a       401e9a    0         404aba    9b        xor eax, eax
40c       401e9c    0         404abc    9b        call 0x4023d0
40e       401ea1    0         404ac1    9b        jmp 0x401d56
410       401ea6    0         402ae4    9b        mov rdx, qword [rsp + 0x30]
412       401eab    0         402ae9    9b        mov esi, eax
414       401ead    0         402aeb    9b        mov edi, 0x405450
416       401eb2    0         402af0    9b        xor eax, eax
418       401eb4    0         402af2    9b        call 0x4023d0
41a       401eb9    0         401be5    9b        jmp 0x401e87
41c       401ebb    0         402acd    9b        mov edi, 0x405540
41e       401ec0    0         402ad2    9b        xor eax, eax
420       401ec2    0         402ad4    9b        call 0x4023d0
422       401ec7    0         401bea    9b        jmp 0x401e87
426       401ed0    0         402c6d    9c        xor dword [rsp], 0x15d2eb7f
428       401ed2    0         402c76    9c        push r13
42a       401ed4    0         402c78    9c        mov r14, rsi
42c       401ed7    0         402c7b    9c        push r12
42e       401ed9    0         402c7d    9c        push rbp
430       401eda    0         402c7e    9c        push rbx
432       401edb    0         402c7f    9c        mov rbx, rdi
434       401ede    0         402c82    9c        call 0x401cd0
436       401ee3    0         401b20    9c        mov rdi, rbx
438       401ee6    0         401b23    9c        mov rbp, rax
43a       401ee9    0         401b26    9c        call 0x404bb0
43c       401eee    0         401bef    9c        cmp eax, -1
43e       401ef1    0         401bf2    9c        je 0x401f5a
440       401ef3    0         401bf8    9c        lea r12, [r14 + 0x12]
442       401ef7    0         401bfc    9c        lea rdi, [rbx + 0x2078]
444       401efe    0         401c03    9c        mov rsi, r12
446       401f01    0         401c06    9c        call 0x404e30
448       401f06    0         401c0b    9c        mov ebx, dword [r14 + 0xc]
44a       401f0a    0         401c0f    9c        test rax, rax
44c       401f0d    0         401c12    9c        mov r13, rax
44e       401f10    0         401c15    9c        bswap ebx
450       401f12    0         401c17    9c        mov ebx, ebx
452       401f14    0         401c19    9c        je 0x401f83
454       401f16    0         401c1f    9c        mov rcx, rax
456       401f19    0         401c22    9c        mov edx, 1
458       401f1e    0         401c27    9c        mov rsi, rbx
45a       401f21    0         401c2a    9c        mov rdi, rbp
45c       401f24    0         401c2d    9c        call 0x401a10
45e       401f29    0         401c32    9c        cmp rax, 1
460       401f2d    0         401c36    9c        je 0x401f34
462       401f2f    0         401c3c    9c        test rbx, rbx
464       401f32    0         401c3f    9c        jne 0x401f68
466       401f34    0         401c45    9c        mov rdi, r13
468       401f37    0         401c48    9c        call 0x401890
46a       401f3c    0         401c4d    9c        mov esi, 0x1c0
46c       401f41    0         401c52    9c        mov edi, eax
46e       401f43    0         401c54    9c        call 0x401970
470       401f48    0         401c59    9c        mov rdi, r13
472       401f4b    0         401c5c    9c        call 0x4016f0
474       401f50    0         401c61    9c        mov rdi, rbp
476       401f53    0         401c64    9c        call 0x401610
478       401f58    0         401c69    9c        xor eax, eax
47a       401f5a    0         401c6b    9c        pop rbx
47c       401f5b    0         401c6c    9c        pop rbp
47e       401f5c    0         401c6d    9c        pop r12
480       401f5e    0         401c6f    9c        pop r13
482       401f60    0         401c71    9c        pop r14
484       401f62    0         401c73    9c        xor dword [rsp], 0x15d2eb7f
488       401f68    0         402b08    9c        xor eax, eax
48a       401f6a    0         402b0a    9c        mov rdx, r12
48c       401f6d    0         402b0d    9c        mov esi, 0x405588
48e       401f72    0         402b12    9c        mov edi, 0x4054bf
490       401f77    0         402b17    9c        call 0x4024a0
492       401f7c    0         401c7b    9c        mov eax, 0xffffffff
494       401f81    0         401c80    9c        jmp 0x401f5a
496       401f83    0         4072bb    9c        xor eax, eax
498       401f85    0         4072bd    9c        mov rdx, r12
49a       401f88    0         4072c0    9c        mov esi, 0x40549d
49c       401f8d    0         4072c5    9c        mov edi, 0x4054b9
49e       401f92    0         4072ca    9c        call 0x4024a0
4a0       401f97    0         404ac6    9c        mov eax, 0xffffffff
4a2       401f9c    0         404acb    9c        jmp 0x401f5a
4a6       401fa0    0         402b81    9d        xor dword [rsp], 0x15d2eb7f
4a8       401fa1    0         402b89    9d        push rbx
4aa       401fa2    0         402b8a    9d        mov rbx, rdi
4ac       401fa5    0         402b8d    9d        sub rsp, 8
4ae       401fa9    0         402b91    9d        mov rdi, qword [rdi]
4b0       401fac    0         402b94    9d        test rdi, rdi
4b2       401faf    0         402b97    9d        je 0x402078
4b4       401fb5    0         407310    9d        xor esi, esi
4b6       401fb7    0         407312    9d        mov edx, 2
4b8       401fbc    0         407317    9d        call 0x401910
4ba       401fc1    0         4065e6    9d        mov rdi, qword [rbx]
4bc       401fc4    0         4065e9    9d        call 0x401810
4be       401fc9    0         4065ee    9d        mov rdi, rbx
4c0       401fcc    0         4065f1    9d        mov esi, eax
4c2       401fce    0         4065f3    9d        call 0x401b70
4c4       401fd3    0         4065f8    9d        cmp eax, -1
4c6       401fd6    0         4065fb    9d        je 0x402098
4c8       401fdc    0         406601    9d        mov esi, dword [rbx + 0x2c]
4ca       401fdf    0         406604    9d        mov eax, dword [rbx + 0x34]
4cc       401fe2    0         406607    9d        xor edx, edx
4ce       401fe4    0         406609    9d        mov rdi, qword [rbx]
4d0       401fe7    0         40660c    9d        mov dword [rbx + 0x407c], 0
4d2       401ff1    0         406616    9d        bswap esi
4d4       401ff3    0         406618    9d        add esi, dword [rbx + 8]
4d6       401ff6    0         40661b    9d        bswap eax
4d8       0         0         40661d    9d        mov dword [6 + 0x201439], eax
4da       401ffe    0         406623    9d        call 0x401910
4dc       402003    0         406628    9d        mov ebp, dword [rbx + 0x30]
4de       402006    0         40662b    9d        bswap ebp
4e0       402008    0         40662d    9d        mov ebp, ebp
4e2       40200a    0         40662f    9d        mov rdi, rbp
4e4       40200d    0         406632    9d        call 0x4018e0
4e6       402012    0         406637    9d        test rax, rax
4e8       402015    0         40663a    9d        mov qword [rbx + 0x10], rax
4ea       402019    0         40663e    9d        je 0x4020ce
4ec       40201f    0         406644    9d        mov rcx, qword [rbx]
4ee       402022    0         406647    9d        mov edx, 1
4f0       402027    0         40664c    9d        mov rsi, rbp
4f2       40202a    0         40664f    9d        mov rdi, rax
4f4       40202d    0         406652    9d        call 0x4016a0
4f6       402032    0         406657    9d        test rax, rax
4f8       402035    0         40665a    9d        je 0x4020a0
4fa       402037    0         406660    9d        mov eax, dword [rbx + 0x30]
4fc       40203a    0         406663    9d        mov rdi, qword [rbx]
4fe       40203d    0         406666    9d        bswap eax
500       40203f    0         406668    9d        mov eax, eax
502       402041    0         40666a    9d        add rax, qword [rbx + 0x10]
504       402045    0         40666e    9d        mov qword [rbx + 0x18], rax
506       402049    0         406672    9d        call 0x401690
508       40204e    0         406677    9d        test eax, eax
50a       402050    0         406679    9d        mov ebp, eax
50c       402052    0         40667b    9d        jne 0x4020c0
50e       402054    0         406681    9d        mov rdi, qword [rbx]
510       402057    0         406684    9d        test rdi, rdi
512       40205a    0         406687    9d        je 0x402068
514       40205c    0         40668d    9d        call 0x4016f0
516       402061    0         406692    9d        mov qword [rbx], 0
518       402068    0         406699    9d        add rsp, 8
51a       40206c    0         40669d    9d        mov eax, ebp
51c       40206e    0         40669f    9d        pop rbx
51e       40206f    0         4066a0    9d        pop rbp
520       402070    0         4066a1    9d        xor dword [rsp], 0x15d2eb7f
524       402078    0         407b9e    9d        lea rdi, [rbx + 0x78]
526       40207c    0         407ba2    9d        mov esi, 0x40542d
528       402081    0         407ba7    9d        call 0x4019a0
52a       402086    0         404ad0    9d        test rax, rax
52c       402089    0         404ad3    9d        mov rdi, rax
52e       40208c    0         404ad6    9d        mov qword [rbx], rax
530       40208f    0         404ad9    9d        jne 0x401fb5
532       402095    0         404adf    9d        nop dword [rax]
534       402098    0         404ae2    9d        mov ebp, 0xffffffff
536       40209d    0         404ae7    9d        jmp 0x402068
53a       4020a0    0         4072e6    9d        mov esi, 0x4054cd
53c       4020a5    0         4072eb    9d        mov edi, 0x4054e7
53e       4020aa    0         4072f0    9d        mov ebp, 0xffffffff
540       4020af    0         4072f5    9d        call 0x4024a0
542       4020b4    0         4066a9    9d        jmp 0x402068
546       4020c0    0         4072ff    9d        mov edi, 0x4054ed
548       4020c5    0         407304    9d        xor eax, eax
54a       4020c7    0         407306    9d        call 0x4023d0
54c       4020cc    0         4066ae    9d        jmp 0x402098
54e       4020ce    0         402b56    9d        mov esi, 0x4055b0
550       4020d3    0         402b5b    9d        mov edi, 0x4054c6
552       4020d8    0         402b60    9d        mov ebp, 0xffffffff
554       4020dd    0         402b65    9d        call 0x4024a0
556       4020e2    0         404aec    9d        jmp 0x402068
55a       4020f0    0         4034a9    9e        xor dword [rsp], 0x15d2eb7f
55c       4020f2    0         4034b2    9e        push r12
55e       4020f4    0         4034b4    9e        mov r12, rdx
560       4020f7    0         4034b7    9e        push rbp
562       4020f8    0         4034b8    9e        push rbx
564       4020f9    0         4034b9    9e        mov rbp, rsi
566       4020fc    0         4034bc    9e        mov rbx, rdi
568       4020ff    0         4034bf    9e        mov esi, 0x1000
56a       402104    0         4034c4    9e        mov rdi, rbp
56c       402107    0         4034c7    9e        sub rsp, 8
56e       40210b    0         4034cb    9e        call 0x401780
570       402110    0         4066b3    9e        mov esi, 0x1000
572       402115    0         4066b8    9e        mov r13, rax
574       402118    0         4066bb    9e        mov rdi, r12
576       40211b    0         4066be    9e        call 0x401780
578       402120    0         4066c3    9e        lea rdx, [r13 + rax + 1]
57a       402125    0         4066c8    9e        mov eax, 0xffffffff
57c       40212a    0         4066cd    9e        cmp rdx, 0x1000
57e       402131    0         4066d4    9e        ja 0x40218b
580       402133    0         4066da    9e        lea rdi, [rbx + 0x78]
582       402137    0         4066de    9e        mov edx, 0x1000
584       40213c    0         4066e3    9e        mov rsi, rbp
586       40213f    0         4066e6    9e        call 0x4018a0
588       402144    0         4066eb    9e        mov rsi, r12
58a       402147    0         4066ee    9e        lea r12, [rbx + 0x1078]
58c       40214e    0         4066f5    9e        mov edx, 0x1000
58e       402153    0         4066fa    9e        mov rdi, rax
590       402156    0         4066fd    9e        call 0x401940
592       40215b    0         406702    9e        mov edx, 0x1000
594       402160    0         406707    9e        mov rsi, rbp
596       402163    0         40670a    9e        mov rdi, r12
598       402166    0         40670d    9e        call 0x401940
59a       40216b    0         406712    9e        lea rdi, [rbx + 0x3078]
59c       402172    0         406719    9e        mov dword [rbx + 0x4078], 0
59e       40217c    0         406723    9e        mov edx, 0x1000
5a0       402181    0         406728    9e        mov rsi, r12
5a2       402184    0         40672b    9e        call 0x401940
5a4       402189    0         406730    9e        xor eax, eax
5a6       40218b    0         406732    9e        add rsp, 8
5a8       40218f    0         406736    9e        pop rbx
5aa       402190    0         406737    9e        pop rbp
5ac       402191    0         406738    9e        pop r12
5ae       402193    0         40673a    9e        pop r13
5b0       402195    0         40673c    9e        xor dword [rsp], 0x15d2eb7f
5b4       4021a0    0         4075d0    9f        xor dword [rsp], 0x15d2eb7f
5b6       4021a1    0         4075d8    9f        mov rbx, rdi
5b8       4021a4    0         4075db    9f        call 0x4020f0
5ba       4021a9    0         404af1    9f        test eax, eax
5bc       4021ab    0         404af3    9f        jne 0x4021cd
5be       4021ad    0         404af9    9f        mov rdi, rbx
5c0       4021b0    0         404afc    9f        call 0x401fa0
5c2       4021b5    0         404b01    9f        test eax, eax
5c4       4021b7    0         404b03    9f        je 0x4021d2
5c6       4021b9    0         404b09    9f        mov rdi, qword [rbx]
5c8       4021bc    0         404b0c    9f        test rdi, rdi
5ca       4021bf    0         404b0f    9f        je 0x4021cd
5cc       4021c1    0         404b15    9f        call 0x4016f0
5ce       4021c6    0         404b1a    9f        mov qword [rbx], 0
5d0       4021cd    0         404b21    9f        mov eax, 0xffffffff
5d2       4021d2    0         404b26    9f        pop rbx
5d4       4021d3    0         404b27    9f        xor dword [rsp], 0x15d2eb7f
5f8       402220    0         402e6e    a3        xor dword [rsp], 0x15d2eb7f
5fa       402223    0         402e78    a3        je 0x402250
5fc       402225    0         402e7e    a3        push rbx
5fe       402226    0         402e7f    a3        mov rbx, rdi
600       402229    0         402e82    a3        mov rdi, qword [rdi + 0x10]
602       40222d    0         402e86    a3        test rdi, rdi
604       402230    0         402e89    a3        je 0x402237
606       402232    0         402e8f    a3        call 0x401610
608       402237    0         404b2f    a3        mov rdi, qword [rbx]
60a       40223a    0         404b32    a3        test rdi, rdi
60c       40223d    0         404b35    a3        je 0x402244
60e       40223f    0         404b3b    a3        call 0x4016f0
610       402244    0         404b40    a3        mov rdi, rbx
612       402247    0         404b43    a3        pop rbx
614       402248    0         404b44    a3        xor dword [rsp], 0x15d2eb7f
618       402250    0         4035d5    a3        xor dword [rsp], 0x15d2eb7f
61c       402260    0         407b34    a4        xor dword [rsp], 0x15d2eb7f
61e       402262    0         407b3d    a4        push r13
620       402264    0         407b3f    a4        mov r13, rdi
622       402267    0         407b42    a4        push r12
624       402269    0         407b44    a4        push rbp
626       40226a    0         407b45    a4        mov r12, rsi
628       40226d    0         407b48    a4        push rbx
62a       40226e    0         407b49    a4        mov rbx, qword [rdi + 0x10]
62c       402272    0         407b4d    a4        mov rdi, rsi
62e       402275    0         407b50    a4        call 0x401730
630       40227a    0         401c85    a4        mov r14, qword [r13 + 0x18]
632       40227e    0         401c89    a4        movsxd rbp, eax
634       402281    0         401c8c    a4        nop dword [rax]
636       402288    0         401c93    a4        cmp rbx, r14
638       40228b    0         401c96    a4        jae 0x4022ba
63a       40228d    0         401c9c    a4        cmp byte [rbx + 0x11], 0x6f
63c       402291    0         401ca0    a4        je 0x4022c8
63e       402293    0         401ca6    a4        mov ecx, dword [rbx]
640       402295    0         401ca8    a4        bswap ecx
642       402297    0         401caa    a4        mov ecx, ecx
644       402299    0         401cac    a4        add rbx, rcx
646       40229c    0         401caf    a4        cmp rbx, qword [r13 + 0x10]
648       4022a0    0         401cb3    a4        jae 0x402288
64a       4022a2    0         401cb9    a4        xor eax, eax
64c       4022a4    0         401cbb    a4        mov edi, 0x405500
64e       4022a9    0         401cc0    a4        call 0x4023d0
650       4022ae    0         401cc5    a4        mov rbx, qword [r13 + 0x18]
652       4022b2    0         401cc9    a4        mov r14, rbx
654       4022b5    0         401ccc    a4        cmp rbx, r14
656       4022b8    0         401ccf    a4        jb 0x40228d
658       4022ba    0         401cd5    a4        pop rbx
65a       4022bb    0         401cd6    a4        xor eax, eax
65c       4022bd    0         401cd8    a4        pop rbp
65e       4022be    0         401cd9    a4        pop r12
660       4022c0    0         401cdb    a4        pop r13
662       4022c2    0         401cdd    a4        pop r14
664       4022c4    0         401cdf    a4        xor dword [rsp], 0x15d2eb7f
668       4022c8    0         402ba2    a4        lea rdi, [rbx + 0x12]
66a       4022cc    0         402ba6    a4        mov rdx, rbp
66c       4022cf    0         402ba9    a4        mov rsi, r12
66e       4022d2    0         402bac    a4        call 0x401650
670       4022d7    0         406744    a4        test eax, eax
672       4022d9    0         406746    a4        jne 0x402293
674       4022db    0         40674c    a4        cmp byte [rbx + rbp + 0x12], 0
676       4022e0    0         406751    a4        lea rdx, [rbx + rbp + 0x13]
678       4022e5    0         406756    a4        lea rax, [rbx + rbp + 0x12]
67a       4022ea    0         40675b    a4        pop rbx
67c       4022eb    0         40675c    a4        pop rbp
67e       4022ec    0         40675d    a4        pop r12
680       4022ee    0         40675f    a4        cmovne rax, rdx
682       4022f2    0         406763    a4        pop r13
684       4022f4    0         406765    a4        pop r14
686       4022f6    0         406767    a4        xor dword [rsp], 0x15d2eb7f
68c       0         0         0         a5        mov rdi, qword [7 + 0x607a49]
6be       0         0         0         a6        mov rdi, qword [7 + 0x607a49]
6cc       4023bb    0         401726    a6        add rsp, 0xd8
6ce       4023c2    0         40172d    a6        xor dword [rsp], 0x15d2eb7f
6d2       4023d0    0         4071e1    a7        xor dword [rsp], 0x15d2eb7f
6d4       4023d1    0         4071e9    a7        sub rsp, 0xd0
6d6       4023d8    0         4071f0    a7        test al, al
6d8       4023da    0         4071f2    a7        mov qword [rsp + 0x28], rsi
6da       4023df    0         4071f7    a7        mov qword [rsp + 0x30], rdx
6dc       4023e4    0         4071fc    a7        mov qword [rsp + 0x38], rcx
6de       4023e9    0         407201    a7        mov qword [rsp + 0x40], r8
6e0       4023ee    0         407206    a7        mov qword [rsp + 0x48], r9
6e2       4023f3    0         40720b    a7        je 0x40242c
6e4       4023f5    0         407211    a7        movaps [rsp + 0x50], xmm0
6e6       4023fa    0         407216    a7        movaps [rsp + 0x60], xmm1
6e8       4023ff    0         40721b    a7        movaps [rsp + 0x70], xmm2
6ea       402404    0         407220    a7        movaps [rsp + 0x80], xmm3
6ec       40240c    0         407228    a7        movaps [rsp + 0x90], xmm4
6ee       402414    0         407230    a7        movaps [rsp + 0xa0], xmm5
6f0       40241c    0         407238    a7        movaps [rsp + 0xb0], xmm6
6f2       402424    0         407240    a7        movaps [rsp + 0xc0], xmm7
6f4       40242c    0         407248    a7        mov rbx, rdi
6f6       40242f    0         40724b    a7        call 0x4016e0
6f8       402434    0         404b50    a7        mov edx, 0x4055d3
6fa       402439    0         404b55    a7        mov ecx, eax
6fc       40243b    0         404b57    a7        mov esi, 1
6fe       0         0         404b5c    a7        mov rdi, qword [7 + 0x202eed]
700       402447    0         404b63    a7        xor eax, eax
702       402449    0         404b65    a7        call 0x401a20
704       40244e    0         404b6a    a7        lea rax, [rsp + 0xe0]
706       0         0         404b72    a7        mov rdi, qword [7 + 0x202ed7]
708       40245d    0         404b79    a7        lea rcx, [rsp + 8]
70a       402462    0         404b7e    a7        mov rdx, rbx
70c       402465    0         404b81    a7        mov esi, 1
70e       40246a    0         404b86    a7        mov dword [rsp + 8], 8
710       402472    0         404b8e    a7        mov qword [rsp + 0x10], rax
712       402477    0         404b93    a7        lea rax, [rsp + 0x20]
714       40247c    0         404b98    a7        mov dword [rsp + 0xc], 0x30
716       402484    0         404ba0    a7        mov qword [rsp + 0x18], rax
718       402489    0         404ba5    a7        call 0x401620
71a       40248e    0         404baa    a7        add rsp, 0xd0
71c       402495    0         404bb1    a7        pop rbx
71e       402496    0         404bb2    a7        xor dword [rsp], 0x15d2eb7f
722       4024a0    0         4033c7    a8        xor dword [rsp], 0x15d2eb7f
724       4024a1    0         4033cf    a8        mov rbx, rdi
726       4024a4    0         4033d2    a8        sub rsp, 0xd0
728       4024ab    0         4033d9    a8        test al, al
72a       4024ad    0         4033db    a8        mov qword [rsp + 0x30], rdx
72c       4024b2    0         4033e0    a8        mov qword [rsp + 0x38], rcx
72e       4024b7    0         4033e5    a8        mov qword [rsp + 0x40], r8
730       4024bc    0         4033ea    a8        mov qword [rsp + 0x48], r9
732       4024c1    0         4033ef    a8        je 0x4024fa
734       4024c3    0         4033f5    a8        movaps [rsp + 0x50], xmm0
736       4024c8    0         4033fa    a8        movaps [rsp + 0x60], xmm1
738       4024cd    0         4033ff    a8        movaps [rsp + 0x70], xmm2
73a       4024d2    0         403404    a8        movaps [rsp + 0x80], xmm3
73c       4024da    0         40340c    a8        movaps [rsp + 0x90], xmm4
73e       4024e2    0         403414    a8        movaps [rsp + 0xa0], xmm5
740       4024ea    0         40341c    a8        movaps [rsp + 0xb0], xmm6
742       4024f2    0         403424    a8        movaps [rsp + 0xc0], xmm7
744       4024fa    0         40342c    a8        lea rax, [rsp + 0xe0]
746       402502    0         403434    a8        lea rcx, [rsp + 8]
748       402507    0         403439    a8        mov rdx, rsi
74a       40250a    0         40343c    a8        mov esi, 1
74c       0         0         403441    a8        mov rdi, qword [7 + 0x204608]
74e       402516    0         403448    a8        mov qword [rsp + 0x10], rax
750       40251b    0         40344d    a8        lea rax, [rsp + 0x20]
752       402520    0         403452    a8        mov dword [rsp + 8], 0x10
754       402528    0         40345a    a8        mov dword [rsp + 0xc], 0x30
756       402530    0         403462    a8        mov qword [rsp + 0x18], rax
758       402535    0         403467    a8        call 0x401620
75a       40253a    0         404bba    a8        mov rdi, rbx
75c       40253d    0         404bbd    a8        call 0x4019b0
75e       402542    0         404bc2    a8        add rsp, 0xd0
760       402549    0         404bc9    a8        pop rbx
762       40254a    0         404bca    a8        xor dword [rsp], 0x15d2eb7f
766       402550    0         407339    a9        xor dword [rsp], 0x15d2eb7f
768       402551    0         407341    a9        mov rbx, rdi
76a       402554    0         407344    a9        sub rsp, 0x160
76c       40255b    0         40734b    a9        test al, al
76e       40255d    0         40734d    a9        mov qword [rsp + 0xc0], rdx
770       402565    0         407355    a9        mov qword [rsp + 0xc8], rcx
772       40256d    0         40735d    a9        mov qword [rsp + 0xd0], r8
774       402575    0         407365    a9        mov qword [rsp + 0xd8], r9
776       40257d    0         40736d    a9        je 0x4025bf
778       40257f    0         407373    a9        movaps [rsp + 0xe0], xmm0
77a       402587    0         40737b    a9        movaps [rsp + 0xf0], xmm1
77c       40258f    0         407383    a9        movaps [rsp + 0x100], xmm2
77e       402597    0         40738b    a9        movaps [rsp + 0x110], xmm3
780       40259f    0         407393    a9        movaps [rsp + 0x120], xmm4
782       4025a7    0         40739b    a9        movaps [rsp + 0x130], xmm5
784       4025af    0         4073a3    a9        movaps [rsp + 0x140], xmm6
786       4025b7    0         4073ab    a9        movaps [rsp + 0x150], xmm7
788       4025bf    0         4073b3    a9        lea rax, [rsp + 0x170]
78a       4025c7    0         4073bb    a9        lea r9, [rsp + 8]
78c       4025cc    0         4073c0    a9        mov r8, rsi
78e       4025cf    0         4073c3    a9        mov rdi, rbx
790       4025d2    0         4073c6    a9        mov rcx, -1
792       4025d9    0         4073cd    a9        mov edx, 1
794       4025de    0         4073d2    a9        mov esi, 0x1000
796       4025e3    0         4073d7    a9        mov qword [rsp + 0x10], rax
798       4025e8    0         4073dc    a9        lea rax, [rsp + 0xb0]
79a       4025f0    0         4073e4    a9        mov dword [rsp + 8], 0x10
79c       4025f8    0         4073ec    a9        mov dword [rsp + 0xc], 0x30
79e       402600    0         4073f4    a9        mov qword [rsp + 0x18], rax
7a0       402605    0         4073f9    a9        call 0x401920
7a2       40260a    0         404bd2    a9        lea rdx, [rsp + 0x20]
7a4       40260f    0         404bd7    a9        mov rsi, rbx
7a6       402612    0         404bda    a9        mov edi, 1
7a8       402617    0         404bdf    a9        call 0x4018b0
7aa       40261c    0         404be4    a9        add rsp, 0x160
7ac       402623    0         404beb    a9        pop rbx
7ae       402624    0         404bec    a9        xor dword [rsp], 0x15d2eb7f
7b2       402630    0         407cc3    aa        xor dword [rsp], 0x15d2eb7f
7b4       402632    0         407ccc    aa        push r13
7b6       402634    0         407cce    aa        mov r13, rdi
7b8       402637    0         407cd1    aa        push r12
7ba       402639    0         407cd3    aa        push rbp
7bc       40263a    0         407cd4    aa        mov edx, 0x1001
7be       40263f    0         407cd9    aa        push rbx
7c0       402640    0         407cda    aa        sub rsp, 0x5010
7c2       402647    0         407ce1    aa        mov rbx, qword [rdi]
7c4       40264a    0         407ce4    aa        lea rdi, [rsp + 0x4000]
7c6       402652    0         407cec    aa        call 0x401640
7c8       402657    0         40676f    aa        cmp byte [rsp + 0x5000], 0
7ca       40265f    0         406777    aa        jne 0x402887
7cc       402665    0         40677d    aa        lea rdi, [rsp + 0x4000]
7ce       40266d    0         406785    aa        mov esi, 0x4055d9
7d0       402672    0         40678a    aa        lea r12, [rsp + 0x1000]
7d2       40267a    0         406792    aa        call 0x4019c0
7d4       40267f    0         406797    aa        mov edx, 0x1000
7d6       402684    0         40679c    aa        mov rsi, rax
7d8       402687    0         40679f    aa        mov rdi, rsp
7da       40268a    0         4067a2    aa        call 0x401940
7dc       40268f    0         4067a7    aa        xor edi, edi
7de       402691    0         4067a9    aa        mov esi, 0x4055d9
7e0       402696    0         4067ae    aa        call 0x4019c0
7e2       40269b    0         4067b3    aa        mov edx, 0x1000
7e4       4026a0    0         4067b8    aa        mov rsi, rax
7e6       4026a3    0         4067bb    aa        mov rdi, r12
7e8       4026a6    0         4067be    aa        call 0x401940
7ea       4026ab    0         4067c3    aa        cmp byte [rsp], 0
7ec       4026af    0         4067c7    aa        je 0x402887
7ee       4026b5    0         4067cd    aa        cmp byte [rsp + 0x1000], 0
7f0       4026bd    0         4067d5    aa        je 0x402887
7f2       4026c3    0         4067db    aa        lea rdi, [rsp + 0x4000]
7f4       4026cb    0         4067e3    aa        mov rsi, rsp
7f6       4026ce    0         4067e6    aa        lea rbp, [rbx + 0x1078]
7f8       4026d5    0         4067ed    aa        call 0x4031c0
7fa       4026da    0         4067f2    aa        sub rsp, 8
7fc       4026de    0         4067f6    aa        mov r9d, 0x4055db
7fe       4026e4    0         4067fc    aa        mov rdx, rbp
800       4026e7    0         4067ff    aa        push r12
802       4026e9    0         406801    aa        mov rcx, r9
804       4026ec    0         406804    aa        xor eax, eax
806       4026ee    0         406806    aa        mov esi, 0x4055e4
808       4026f3    0         40680b    aa        lea r8, [rsp + 0x4010]
80a       4026fb    0         406813    aa        lea rdi, [rsp + 0x2010]
80c       402703    0         40681b    aa        call 0x402550
80e       402708    0         406820    aa        test eax, eax
810       40270a    0         406822    aa        pop rdx
812       40270b    0         406823    aa        pop rcx
814       40270c    0         406824    aa        jne 0x402758
816       40270e    0         40682a    aa        mov rdi, rbx
818       402711    0         40682d    aa        call 0x404bb0
81a       402716    0         406832    aa        cmp eax, -1
81c       402719    0         406835    aa        je 0x4029b0
81e       40271f    0         40683b    aa        lea rsi, [rbx + 0x2078]
9e6       402ab7    0         4034e3    ac        xor eax, eax
820       402726    0         406842    aa        lea rdi, [rsp + 0x2000]
822       40272e    0         40684a    aa        mov rdx, r12
824       402731    0         40684d    aa        call 0x404ff0
826       402736    0         406852    aa        cmp eax, -1
828       402739    0         406855    aa        je 0x4029b0
82a       40273f    0         40685b    aa        xor eax, eax
82c       402741    0         40685d    aa        add rsp, 0x5010
82e       402748    0         406864    aa        pop rbx
830       402749    0         406865    aa        pop rbp
832       40274a    0         406866    aa        pop r12
834       40274c    0         406868    aa        pop r13
836       40274e    0         40686a    aa        pop r14
838       402750    0         40686c    aa        xor dword [rsp], 0x15d2eb7f
83c       402758    0         407403    aa        sub rsp, 8
83e       40275c    0         407407    aa        mov r9d, 0x4055db
840       402762    0         40740d    aa        mov r8d, 0x4055dd
842       402768    0         407413    aa        push r12
844       40276a    0         407415    aa        push 0x4055db
846       40276f    0         40741a    aa        mov rcx, r9
848       402772    0         40741d    aa        mov rdx, rbp
84a       402775    0         407420    aa        mov esi, 0x4055e0
84c       40277a    0         407425    aa        lea rax, [rsp + 0x4018]
84e       402782    0         40742d    aa        push rax
850       402783    0         40742e    aa        xor eax, eax
852       402785    0         407430    aa        lea rdi, [rsp + 0x2020]
854       40278d    0         407438    aa        call 0x402550
856       402792    0         401735    aa        add rsp, 0x20
858       402796    0         401739    aa        test eax, eax
85a       402798    0         40173b    aa        je 0x40270e
85c       40279e    0         401741    aa        lea rdi, [rsp + 0x3000]
85e       4027a6    0         401749    aa        xor eax, eax
860       4027a8    0         40174b    aa        mov r8, rsp
862       4027ab    0         40174e    aa        mov ecx, 0x4055db
864       4027b0    0         401753    aa        mov rdx, rbp
866       4027b3    0         401756    aa        mov esi, 0x4055ef
868       4027b8    0         40175b    aa        call 0x402550
86a       4027bd    0         401760    aa        test eax, eax
86c       4027bf    0         401762    aa        jne 0x4028a0
86e       4027c5    0         401768    aa        mov rdi, qword [r13]
870       4027c9    0         40176c    aa        call 0x404bb0
872       4027ce    0         401771    aa        cmp eax, -1
874       4027d1    0         401774    aa        je 0x4028f0
876       4027d7    0         40177a    aa        mov rbx, qword [r13 + 8]
878       4027db    0         40177e    aa        lea rbp, [r13 + 0x10]
87a       4027df    0         401782    aa        lea r14, [r13 + 8]
87c       4027e3    0         401786    aa        test rbx, rbx
87e       4027e6    0         401789    aa        jne 0x402804
880       4027e8    0         40178f    aa        jmp 0x402910
884       4027f0    0         402c54    aa        mov r14, rbp
886       4027f3    0         402c57    aa        add rbp, 8
888       4027f7    0         402c5b    aa        mov rbx, qword [rbp - 8]
88a       4027fb    0         402c5f    aa        test rbx, rbx
88c       4027fe    0         402c62    aa        je 0x402910
88e       402804    0         407442    aa        lea rdi, [rbx + 0x78]
890       402808    0         407446    aa        lea rsi, [rsp + 0x3000]
892       402810    0         40744e    aa        call 0x4017f0
894       402815    0         401ce7    aa        test eax, eax
896       402817    0         401ce9    aa        jne 0x4027f0
898       402819    0         401cef    aa        mov rbp, qword [rbx + 0x10]
89a       40281d    0         401cf3    aa        cmp rbp, qword [rbx + 0x18]
89c       402821    0         401cf7    aa        jae 0x40273f
89e       402827    0         401cfd    aa        nop word [rax + rax]
8a0       402830    0         401d06    aa        lea rdi, [rbp + 0x12]
8a2       402834    0         401d0a    aa        mov rsi, r12
8a4       402837    0         401d0d    aa        call 0x4017f0
8a6       40283c    0         401d12    aa        test eax, eax
8a8       40283e    0         401d14    aa        jne 0x40284f
8aa       402840    0         401d1a    aa        mov rsi, rbp
8ac       402843    0         401d1d    aa        mov rdi, rbx
8ae       402846    0         401d20    aa        call 0x401ed0
8b0       40284b    0         401d25    aa        test eax, eax
8b2       40284d    0         401d27    aa        jne 0x402870
8b4       40284f    0         401d2d    aa        mov rsi, rbp
8b6       402852    0         401d30    aa        mov rdi, rbx
8b8       402855    0         401d33    aa        call 0x401ca0
8ba       40285a    0         401d38    aa        cmp rax, qword [rbx + 0x18]
8bc       40285e    0         401d3c    aa        mov rbp, rax
8be       402861    0         401d3f    aa        jb 0x402830
8c0       402863    0         401d45    aa        jmp 0x40273f
8c4       402870    0         40745e    aa        mov edi, 0x405648
8c6       402875    0         407463    aa        mov rsi, r12
8c8       402878    0         407466    aa        xor eax, eax
8ca       40287a    0         407468    aa        call 0x4023d0
8cc       40287f    0         404bf4    aa        mov rdi, rbx
8ce       402882    0         404bf7    aa        call 0x401610
8d0       402887    0         404bfc    aa        add rsp, 0x5010
8d2       40288e    0         404c03    aa        mov eax, 0xffffffff
8d4       402893    0         404c08    aa        pop rbx
8d6       402894    0         404c09    aa        pop rbp
8d8       402895    0         404c0a    aa        pop r12
8da       402897    0         404c0c    aa        pop r13
8dc       402899    0         404c0e    aa        pop r14
8de       40289b    0         404c10    aa        xor dword [rsp], 0x15d2eb7f
8e2       4028a0    0         402c21    aa        lea rdi, [rsp + 0x3000]
8e4       4028a8    0         402c29    aa        xor eax, eax
8e6       4028aa    0         402c2b    aa        mov r8, rsp
8e8       4028ad    0         402c2e    aa        mov ecx, 0x4055db
8ea       4028b2    0         402c33    aa        mov rdx, rbp
8ec       4028b5    0         402c36    aa        mov esi, 0x4055fa
8ee       4028ba    0         402c3b    aa        call 0x402550
8f0       4028bf    0         401794    aa        test eax, eax
8f2       4028c1    0         401796    aa        je 0x4027c5
8f4       4028c7    0         40179c    aa        lea rdi, [rsp + 0x3000]
8f6       4028cf    0         4017a4    aa        xor eax, eax
8f8       4028d1    0         4017a6    aa        mov r8, rsp
8fa       4028d4    0         4017a9    aa        mov ecx, 0x4055db
8fc       4028d9    0         4017ae    aa        mov rdx, rbp
8fe       4028dc    0         4017b1    aa        mov esi, 0x4055e8
900       4028e1    0         4017b6    aa        call 0x402550
902       4028e6    0         4017bb    aa        test eax, eax
904       4028e8    0         4017bd    aa        je 0x4027c5
906       4028ee    0         4017c3    aa        nop 
908       4028f0    0         4017c5    aa        lea rsi, [rsp + 0x3000]
90a       4028f8    0         4017cd    aa        xor eax, eax
90c       4028fa    0         4017cf    aa        mov edi, 0x405605
90e       4028ff    0         4017d4    aa        call 0x4023d0
910       402904    0         4017d9    aa        mov eax, 0xffffffff
912       402909    0         4017de    aa        jmp 0x402741
916       402910    0         402c45    aa        mov edi, 0x4090
918       402915    0         402c4a    aa        call 0x4018e0
91a       40291a    0         406874    aa        test rax, rax
91c       40291d    0         406877    aa        mov rbx, rax
91e       402920    0         40687a    aa        je 0x402a0f
920       402926    0         406880    aa        lea rdi, [rax + 0x78]
922       40292a    0         406884    aa        lea rsi, [rsp + 0x3000]
924       402932    0         40688c    aa        mov edx, 0x1000
926       402937    0         406891    aa        call 0x401640
928       40293c    0         406896    aa        mov rbp, qword [r13]
92a       402940    0         40689a    aa        lea rdi, [rbx + 0x1078]
92c       402947    0         4068a1    aa        mov edx, 0x1000
92e       40294c    0         4068a6    aa        lea rsi, [rbp + 0x1078]
930       402953    0         4068ad    aa        call 0x401640
932       402958    0         4068b2    aa        lea rsi, [rbp + 0x2078]
934       40295f    0         4068b9    aa        lea rdi, [rbx + 0x2078]
936       402966    0         4068c0    aa        mov edx, 0x1000
938       40296b    0         4068c5    aa        call 0x401640
93a       402970    0         4068ca    aa        cmp byte [rbx + 0x1077], 0
93c       402977    0         4068d1    aa        jne 0x4029d0
93e       402979    0         4068d7    aa        cmp byte [rbx + 0x2077], 0
940       402980    0         4068de    aa        jne 0x4029d0
942       402982    0         4068e4    aa        cmp byte [rbx + 0x3077], 0
944       402989    0         4068eb    aa        jne 0x4029d0
946       40298b    0         4068f1    aa        mov eax, dword [rbp + 0x4078]
948       402991    0         4068f7    aa        mov rdi, rbx
94a       402994    0         4068fa    aa        mov dword [rbx + 0x4078], eax
b18       402ced    0         404c66    ad        jmp 0x402cca
94c       40299a    0         406900    aa        call 0x401fa0
94e       40299f    0         406905    aa        test eax, eax
950       4029a1    0         406907    aa        jne 0x4029e9
952       4029a3    0         40690d    aa        mov qword [r14], rbx
954       4029a6    0         406910    aa        jmp 0x402819
958       4029b0    0         402be6    aa        xor eax, eax
95a       4029b2    0         402be8    aa        mov rsi, r12
95c       4029b5    0         402beb    aa        mov edi, 0x405636
95e       4029ba    0         402bf0    aa        call 0x4023d0
960       4029bf    0         401d4a    aa        mov eax, 0xffffffff
962       4029c4    0         401d4f    aa        jmp 0x402741
966       4029d0    0         402ca8    aa        mov edi, 0x4056d0
968       4029d5    0         402cad    aa        xor eax, eax
96a       4029d7    0         402caf    aa        call 0x4023d0
96c       4029dc    0         4017e3    aa        mov rdi, rbx
96e       4029df    0         4017e6    aa        call 0x401610
970       4029e4    0         4017eb    aa        jmp 0x4028f0
972       4029e9    0         402cb9    aa        lea rdx, [rsp + 0x3000]
974       4029f1    0         402cc1    aa        mov esi, 0x40561c
976       4029f6    0         402cc6    aa        mov edi, 0x4054c6
978       4029fb    0         402ccb    aa        xor eax, eax
97a       4029fd    0         402ccd    aa        call 0x4024a0
97c       402a02    0         404c18    aa        mov rdi, rbx
97e       402a05    0         404c1b    aa        call 0x401610
980       402a0a    0         404c20    aa        jmp 0x4028f0
982       402a0f    0         402c8c    aa        mov esi, 0x4056a8
984       402a14    0         402c91    aa        mov edi, 0x4054c6
986       402a19    0         402c96    aa        xor eax, eax
988       402a1b    0         402c98    aa        call 0x4024a0
98a       402a20    0         401d54    aa        jmp 0x4028f0
9aa       402a60    0         402cd7    ab        movzx edx, byte [rax + 0x11]
9ac       402a64    0         402cdb    ab        cmp dl, 0x64
9ae       402a67    0         402cde    ab        sete sil
9b0       402a6b    0         402ce2    ab        cmp dl, 0x78
9b2       402a6e    0         402ce5    ab        sete cl
9b4       402a71    0         402ce8    ab        or sil, cl
9b6       402a74    0         402ceb    ab        jne 0x402aa0
9b8       402a76    0         402cf1    ab        sub edx, 0x5a
9ba       402a79    0         402cf4    ab        and edx, 0xf7
9bc       402a7f    0         402cfa    ab        je 0x402aa0
9be       402a81    0         402d00    ab        mov rsi, rax
9c0       402a84    0         402d03    ab        mov rdi, rbx
9c2       402a87    0         402d06    ab        call 0x401ca0
9c4       402a8c    0         401d59    ab        cmp qword [rbx + 0x18], rax
9c6       402a90    0         401d5d    ab        ja 0x402a60
9c8       402a92    0         401d63    ab        xor eax, eax
9ca       402a94    0         401d65    ab        pop rbx
9cc       402a95    0         401d66    ab        xor dword [rsp], 0x15d2eb7f
9d0       402aa0    0         407c03    ab        mov eax, 1
9d2       402aa5    0         407c08    ab        pop rbx
9d4       402aa6    0         407c09    ab        xor dword [rsp], 0x15d2eb7f
9de       402ab0    0         4034d5    ac        xor dword [rsp], 0x15d2eb7f
9e0       402ab2    0         4034de    ac        push rbp
9e2       402ab3    0         4034df    ac        mov r12, rdi
9e4       402ab6    0         4034e2    ac        push rbx
9e8       402ab9    0         4034e5    ac        mov ecx, 0x14
9ea       402abe    0         4034ea    ac        sub rsp, 0xa0
9ec       402ac5    0         4034f1    ac        mov rbx, qword [rdi + 0x10]
9ee       402ac9    0         4034f5    ac        cmp rbx, qword [r12 + 0x18]
9f0       402ace    0         4034fa    ac        mov rdi, rsp
9f2       402ad1    0         4034fd    ac        mov rbp, rsp
9f4       402ad4    0         403500    ac        stosq qword [rdi], rax
9f6       402ad7    0         403503    ac        mov qword [rsp], r12
9f8       402adb    0         403507    ac        jb 0x402b05
9fa       402add    0         40350d    ac        jmp 0x402b81
9fe       402ae8    0         402d10    ac        cmp al, 0x78
a00       402aea    0         402d12    ac        je 0x402b14
a02       402aec    0         402d18    ac        cmp al, 0x64
a04       402aee    0         402d1a    ac        je 0x402b30
a06       402af0    0         402d20    ac        mov rsi, rbx
a08       402af3    0         402d23    ac        mov rdi, r12
a0a       402af6    0         402d26    ac        call 0x401ca0
a0c       402afb    0         401d6e    ac        cmp qword [r12 + 0x18], rax
a0e       402b00    0         401d73    ac        mov rbx, rax
a10       402b03    0         401d76    ac        jbe 0x402b48
a12       402b05    0         401d7c    ac        movzx eax, byte [rbx + 0x11]
a14       402b09    0         401d80    ac        lea edx, [rax - 0x5a]
a16       402b0c    0         401d83    ac        and edx, 0xf7
a18       402b12    0         401d89    ac        jne 0x402ae8
a1a       402b14    0         401d8f    ac        mov rsi, rbx
a1c       402b17    0         401d92    ac        mov rdi, r12
a1e       402b1a    0         401d95    ac        call 0x401ed0
a20       402b1f    0         401d9a    ac        test eax, eax
a22       402b21    0         401d9c    ac        je 0x402af0
a24       402b23    0         401da2    ac        mov rdi, qword [rsp + 8]
a26       402b28    0         401da7    ac        mov r12d, 0xffffffff
a28       402b2e    0         401dad    ac        jmp 0x402b50
a2a       402b30    0         407c11    ac        lea rsi, [rbx + 0x12]
a2c       402b34    0         407c15    ac        mov rdi, rbp
a2e       402b37    0         407c18    ac        call 0x402630
a30       402b3c    0         406915    ac        cmp eax, -1
a32       402b3f    0         406918    ac        jne 0x402af0
a34       402b41    0         40691e    ac        jmp 0x402b23
a38       402b48    0         407472    ac        mov rdi, qword [rsp + 8]
a3a       402b4d    0         407477    ac        xor r12d, r12d
a3c       402b50    0         40747a    ac        test rdi, rdi
a3e       402b53    0         40747d    ac        lea rbx, [rbp + 0x10]
a40       402b57    0         407481    ac        je 0x402b72
a42       402b59    0         407487    ac        nop dword [rax]
a44       402b60    0         40748e    ac        add rbx, 8
a46       402b64    0         407492    ac        call 0x402220
a48       402b69    0         4017f0    ac        mov rdi, qword [rbx - 8]
a4a       402b6d    0         4017f4    ac        test rdi, rdi
a4c       402b70    0         4017f7    ac        jne 0x402b60
a4e       402b72    0         4017fd    ac        add rsp, 0xa0
a50       402b79    0         401804    ac        mov eax, r12d
a52       402b7c    0         401807    ac        pop rbx
a54       402b7d    0         401808    ac        pop rbp
a56       402b7e    0         401809    ac        pop r12
a58       402b80    0         40180b    ac        xor dword [rsp], 0x15d2eb7f
a5a       402b81    0         407cf6    ac        xor r12d, r12d
a5c       402b84    0         407cf9    ac        jmp 0x402b72
a60       402b90    0         402de9    ad        xor dword [rsp], 0x15d2eb7f
a62       402b92    0         402df2    ad        push r14
a64       402b94    0         402df4    ad        push r13
a66       402b96    0         402df6    ad        push r12
a68       402b98    0         402df8    ad        push rbp
a6a       402b99    0         402df9    ad        push rbx
a6c       402b9a    0         402dfa    ad        mov rbp, rdi
a6e       402b9d    0         402dfd    ad        sub rsp, 0x1018
a70       402ba4    0         402e04    ad        mov rbx, qword [rdi + 0x10]
a72       402ba8    0         402e08    ad        mov edi, 0x40565d
a74       0         0         402e0d    ad        call qword [6 + 0x204d05]
a76       402bb3    0         404c25    ad        test rax, rax
a78       402bb6    0         404c28    ad        mov qword [rsp + 8], rax
a7a       402bbb    0         404c2d    ad        je 0x402d25
a7c       402bc1    0         404c33    ad        mov rdi, qword [rsp + 8]
a7e       0         0         404c38    ad        call qword [6 + 0x202eaa]
a80       402bcc    0         404c3e    ad        test rax, rax
a82       402bcf    0         404c41    ad        mov r14, rax
a84       402bd2    0         404c44    ad        je 0x402d36
a86       402bd8    0         404c4a    ad        cmp rbx, qword [rbp + 0x18]
a88       402bdc    0         404c4e    ad        jb 0x402c00
a8a       402bde    0         404c54    ad        jmp 0x402cc8
a8e       402be8    0         402d6d    ad        mov rsi, rbx
a90       402beb    0         402d70    ad        mov rdi, rbp
a92       402bee    0         402d73    ad        call 0x401ca0
a94       402bf3    0         401db2    ad        cmp qword [rbp + 0x18], rax
a96       402bf7    0         401db6    ad        mov rbx, rax
a98       402bfa    0         401db9    ad        jbe 0x402cc8
a9a       402c00    0         401dbf    ad        cmp byte [rbx + 0x11], 0x73
a9c       402c04    0         401dc3    ad        jne 0x402be8
a9e       402c06    0         401dc9    ad        lea r12, [rbx + 0x12]
aa0       402c0a    0         401dcd    ad        mov rsi, rbx
aa2       402c0d    0         401dd0    ad        mov rdi, rbp
aa4       402c10    0         401dd3    ad        call 0x401cd0
aa6       402c15    0         401dd8    ad        mov esi, 0x1000
aa8       402c1a    0         401ddd    ad        mov rdi, r12
aaa       402c1d    0         401de0    ad        mov r13, rax
aac       402c20    0         401de3    ad        call 0x401780
aae       402c25    0         401de8    ad        cmp rax, 0xffb
ab0       402c2b    0         401dee    ad        ja 0x402cdc
ab2       402c31    0         401df4    ad        lea rdi, [rsp + 0x10]
ab4       402c36    0         401df9    ad        mov edx, 0x1000
ab6       402c3b    0         401dfe    ad        mov rsi, r12
ab8       402c3e    0         401e01    ad        call 0x4018a0
aba       402c43    0         401e06    ad        mov dword [rax], 0x79702e
abc       0         0         401e0c    ad        mov eax, dword [6 + 0x215f4e]
abe       402c4f    0         401e12    ad        lea rdi, [rsp + 0x10]
ac0       402c54    0         401e17    ad        test eax, eax
ac2       402c56    0         401e19    ad        je 0x402cb8
ac4       0         0         401e1f    ad        call qword [6 + 0x205ca3]
ac6       402c5e    0         401e25    ad        mov r15, rax
ac8       402c61    0         401e28    ad        mov rdx, r15
aca       402c64    0         401e2b    ad        mov esi, 0x40567d
acc       402c69    0         401e30    ad        mov rdi, qword [rsp + 8]
ace       0         0         401e35    ad        call qword [6 + 0x205c9d]
ad0       402c74    0         401e3b    ad        mov rdi, r15
ad2       0         0         401e3e    ad        call qword [6 + 0x205d34]
ad4       402c7d    0         401e44    ad        mov esi, dword [rbx + 0xc]
ad6       402c80    0         401e47    ad        mov rdi, r13
ad8       402c83    0         401e4a    ad        bswap esi
ada       402c85    0         401e4c    ad        mov esi, esi
adc       0         0         401e4e    ad        call qword [6 + 0x205c0c]
ade       402c8d    0         401e54    ad        test rax, rax
ae0       402c90    0         401e57    ad        je 0x402cef
ae2       402c92    0         401e5d    ad        mov rdx, r14
ae4       402c95    0         401e60    ad        mov rsi, r14
ae6       402c98    0         401e63    ad        mov rdi, rax
ae8       0         0         401e66    ad        call qword [6 + 0x205bfc]
aea       402ca1    0         401e6c    ad        test rax, rax
aec       402ca4    0         401e6f    ad        je 0x402d09
aee       402ca6    0         401e75    ad        mov rdi, r13
af0       402ca9    0         401e78    ad        call 0x401610
af2       402cae    0         401e7d    ad        jmp 0x402be8
af6       0         0         4074ab    ad        call qword [6 + 0x2005e7]
af8       402cbe    0         404c59    ad        mov r15, rax
afa       402cc1    0         404c5c    ad        jmp 0x402c61
afe       402cc8    0         402d41    ad        xor eax, eax
b00       402cca    0         402d43    ad        add rsp, 0x1018
b02       402cd1    0         402d4a    ad        pop rbx
b04       402cd2    0         402d4b    ad        pop rbp
b06       402cd3    0         402d4c    ad        pop r12
b08       402cd5    0         402d4e    ad        pop r13
b0a       402cd7    0         402d50    ad        pop r14
b0c       402cd9    0         402d52    ad        pop r15
b0e       402cdb    0         402d54    ad        xor dword [rsp], 0x15d2eb7f
b10       402cdc    0         402d5c    ad        xor eax, eax
b12       402cde    0         402d5e    ad        mov edi, 0x405666
b14       402ce3    0         402d63    ad        call 0x4023d0
b16       402ce8    0         404c61    ad        mov eax, 0xffffffff
b1a       402cef    0         4074b6    ad        mov rsi, r12
b1c       402cf2    0         4074b9    ad        mov edi, 0x405738
b1e       402cf7    0         4074be    ad        call 0x4023d0
b20       0         0         406923    ad        call qword [6 + 0x2011f7]
b22       402d02    0         406929    ad        mov eax, 0xffffffff
b24       402d07    0         40692e    ad        jmp 0x402cca
b26       0         0         4074c8    ad        call qword [6 + 0x200652]
b28       402d0f    0         401e82    ad        xor eax, eax
b2a       402d11    0         401e84    ad        mov rsi, r12
b2c       402d14    0         401e87    ad        mov edi, 0x405686
b2e       402d19    0         401e8c    ad        call 0x4023d0
b30       402d1e    0         401e91    ad        mov eax, 0xffffffff
b32       402d23    0         401e96    ad        jmp 0x402cca
b34       402d25    0         40749c    ad        mov edi, 0x4056f0
b36       402d2a    0         4074a1    ad        call 0x4023d0
b38       402d2f    0         401e9b    ad        mov eax, 0xffffffff
b3a       402d34    0         401ea0    ad        jmp 0x402cca
b3c       402d36    0         402d30    ad        xor eax, eax
b3e       402d38    0         402d32    ad        mov edi, 0x405710
b40       402d3d    0         402d37    ad        call 0x4023d0
b42       402d42    0         401ea5    ad        mov eax, 0xffffffff
b44       402d47    0         401eaa    ad        jmp 0x402cca
b54       0         0         0         ae        call qword [6 + 0x607b12]
b56       402d65    0         401813    ae        test rax, rax
b58       402d68    0         401816    ae        je 0x402e20
b5a       402d6e    0         40181c    ae        mov rdi, rax
b5c       0         0         40181f    ae        call qword [6 + 0x2062c3]
b5e       402d77    0         401825    ae        mov rsi, rbx
b60       402d7a    0         401828    ae        mov rdi, rax
b62       0         0         40182b    ae        call qword [6 + 0x206307]
b64       402d83    0         401831    ae        test rax, rax
b66       402d86    0         401834    ae        mov rbx, rax
b68       402d89    0         401837    ae        je 0x402e30
b6a       402d8f    0         40183d    ae        mov rdi, rax
b6c       402d92    0         401840    ae        mov esi, 0x4054b8
b6e       402d97    0         401845    ae        xor eax, eax
b70       0         0         401847    ae        call qword [6 + 0x206293]
b72       402d9f    0         40184d    ae        test rax, rax
b74       402da2    0         401850    ae        mov rbp, rax
b76       402da5    0         401853    ae        je 0x402e40
b78       0         0         401859    ae        call qword [6 + 0x2062d1]
b7a       402db1    0         40185f    ae        mov rdi, rbp
b7c       0         0         401862    ae        call qword [6 + 0x206288]
b7e       402dba    0         401868    ae        mov dword [r12], eax
b80       402dbe    0         40186c    ae        mov r12d, 0xffffffff
b82       0         0         401872    ae        call qword [6 + 0x2062b0]
b84       402dca    0         401878    ae        test rax, rax
b86       402dcd    0         40187b    ae        je 0x402df8
b88       402dcf    0         401881    ae        mov rdi, rbx
b8a       0         0         401884    ae        call qword [6 + 0x2062ee]
b8c       402dd8    0         40188a    ae        mov rdi, rbp
b8e       0         0         40188d    ae        call qword [6 + 0x2062e5]
b90       0         0         401893    ae        call qword [6 + 0x206287]
b92       0         0         401899    ae        call qword [6 + 0x206291]
b94       402ded    0         40189f    ae        mov eax, r12d
b96       402df0    0         4018a2    ae        pop rbx
b98       402df1    0         4018a3    ae        pop rbp
b9a       402df2    0         4018a4    ae        pop r12
b9c       402df4    0         4018a6    ae        xor dword [rsp], 0x15d2eb7f
ba0       402df8    0         402d7d    ae        xor r12d, r12d
ba2       402dfb    0         402d80    ae        mov rdi, rbx
ba4       0         0         402d83    ae        call qword [6 + 0x204def]
ba6       402e04    0         4018ae    ae        mov rdi, rbp
ba8       0         0         4018b1    ae        call qword [6 + 0x2062c1]
baa       0         0         4018b7    ae        call qword [6 + 0x206273]
bac       402e13    0         4018bd    ae        mov eax, r12d
bae       402e16    0         4018c0    ae        pop rbx
bb0       402e17    0         4018c1    ae        pop rbp
bb2       402e18    0         4018c2    ae        pop r12
bb4       402e1a    0         4018c4    ae        xor dword [rsp], 0x15d2eb7f
bb8       402e20    0         4074d3    ae        xor ebp, ebp
bba       402e22    0         4074d5    ae        xor ebx, ebx
bbc       402e24    0         4074d7    ae        mov r12d, 0xffffffff
bbe       402e2a    0         4074dd    ae        jmp 0x402dcf
bc2       402e30    0         4074e2    ae        xor ebp, ebp
bc4       402e32    0         4074e4    ae        mov r12d, 0xfffffffe
bc6       402e38    0         4074ea    ae        jmp 0x402dcf
bca       402e40    0         4074ef    ae        mov r12d, 0xffffffff
bcc       402e46    0         4074f5    ae        jmp 0x402dcf
bd0       402e50    0         40538d    af        ret 
bd4       402e60    0         407646    b0        xor dword [rsp], 0x15d2eb7f
bd6       402e62    0         40764f    b0        push rbp
bd8       402e63    0         407650    b0        push rbx
bda       402e64    0         407651    b0        mov rbx, rdi
bdc       402e67    0         407654    b0        call 0x4040d0
bde       402e6c    0         406933    b0        test eax, eax
be0       402e6e    0         406935    b0        jne 0x402ec0
be2       402e70    0         40693b    b0        mov dword [rbx + 0x407c], 1
be4       402e7a    0         406945    b0        mov rdi, rbx
be6       402e7d    0         406948    b0        call 0x404380
be8       402e82    0         40694d    b0        test eax, eax
bea       402e84    0         40694f    b0        jne 0x402ec0
bec       402e86    0         406955    b0        mov rdi, rbx
bee       402e89    0         406958    b0        call 0x404670
bf0       402e8e    0         40695d    b0        test eax, eax
bf2       402e90    0         40695f    b0        jne 0x402ec0
bf4       402e92    0         406965    b0        mov rdi, rbx
bf6       402e95    0         406968    b0        call 0x4048e0
bf8       402e9a    0         40696d    b0        test eax, eax
bfa       402e9c    0         40696f    b0        jne 0x402ec0
bfc       0         0         406975    b0        mov rax, qword [7 + 0x20123c]
bfe       402ea5    0         40697c    b0        cmp qword [rax], 0
c00       402ea9    0         406980    b0        je 0x402ed0
c02       402eab    0         406986    b0        mov rdi, rbx
c04       402eae    0         406989    b0        pop rbx
c06       402eaf    0         40698a    b0        pop rbp
c08       402eb0    0         40698b    b0        pop r12
c0a       402eb2    0         40698d    b0        xor dword [rsp], 0x15d2eb7f
c0e       402ec0    0         4074fa    b0        pop rbx
c10       402ec1    0         4074fb    b0        mov eax, 0xffffffff
c12       402ec6    0         407500    b0        pop rbp
c14       402ec7    0         407501    b0        pop r12
c16       402ec9    0         407503    b0        xor dword [rsp], 0x15d2eb7f
c1a       402ed0    0         40753d    b0        xor esi, esi
c1c       402ed2    0         40753f    b0        xor edi, edi
c1e       402ed4    0         407541    b0        call 0x401960
c20       402ed9    0         404c6b    b0        mov rdi, rax
c22       402edc    0         404c6e    b0        call 0x4017b0
c24       402ee1    0         404c73    b0        mov esi, 0x4054b8
c26       402ee6    0         404c78    b0        xor edi, edi
c28       402ee8    0         404c7a    b0        mov rbp, rax
c2a       402eeb    0         404c7d    b0        call 0x401960
c2c       402ef0    0         404c82    b0        mov edi, 0xe
c2e       402ef5    0         404c87    b0        call 0x401900
c30       402efa    0         404c8c    b0        mov rsi, rbp
c32       402efd    0         404c8f    b0        xor edi, edi
c34       402eff    0         404c91    b0        mov r12, rax
c36       402f02    0         404c94    b0        call 0x401960
c38       402f07    0         404c99    b0        mov rdi, rbp
c3a       402f0a    0         404c9c    b0        call 0x401610
c3c       0         0         404ca1    b0        mov rdx, qword [7 + 0x202f10]
c3e       402f16    0         404ca8    b0        mov qword [rdx], r12
c40       402f19    0         404cab    b0        jmp 0x402eab
c44       402f20    0         402e2b    b1        jmp 0x404930
c48       402f30    0         40765e    b2        ret 
c4e       402f40    0         407b6c    b3        xor dword [rsp], 0x15d2eb7f
c50       402f42    0         407b75    b3        push r13
c52       402f44    0         407b77    b3        mov r13d, edi
c54       402f47    0         407b7a    b3        push r12
c56       402f49    0         407b7c    b3        push rbp
c58       402f4a    0         407b7d    b3        mov r12, rsi
c5a       402f4d    0         407b80    b3        push rbx
c5c       402f4e    0         407b81    b3        mov esi, 0x4090
c5e       402f53    0         407b86    b3        mov edi, 1
c60       402f58    0         407b8b    b3        sub rsp, 0x3000
c62       402f5f    0         407b92    b3        call 0x4017e0
c64       402f64    0         406999    b3        test rax, rax
c66       402f67    0         40699c    b3        mov rbx, rax
c68       402f6a    0         40699f    b3        je 0x4031a4
c6a       402f70    0         4069a5    b3        mov rsi, qword [r12]
c6c       402f74    0         4069a9    b3        mov rdi, rsp
c6e       402f77    0         4069ac    b3        lea r14, [rsp + 0x1000]
c70       402f7f    0         4069b4    b3        call 0x4034c0
c72       402f84    0         4069b9    b3        lea rdi, [rsp + 0x2000]
c74       402f8c    0         4069c1    b3        mov rsi, rsp
c76       402f8f    0         4069c4    b3        call 0x403590
c78       402f94    0         4069c9    b3        mov rsi, rsp
c7a       402f97    0         4069cc    b3        mov rdi, r14
c7c       402f9a    0         4069cf    b3        call 0x403580
c7e       402f9f    0         4069d4    b3        mov edi, 0x4057ba
c80       402fa4    0         4069d9    b3        call 0x404a90
c82       402fa9    0         4069de    b3        mov edi, 0x4057ba
c84       402fae    0         4069e3    b3        mov rbp, rax
c86       402fb1    0         4069e6    b3        call 0x404b40
c88       402fb6    0         4069eb    b3        mov r9, r14
c8a       402fb9    0         4069ee    b3        mov eax, dword [r9]
c8c       402fbc    0         4069f1    b3        add r9, 4
c8e       402fc0    0         4069f5    b3        lea r8d, [rax - 0x1010101]
c90       402fc7    0         4069fc    b3        not eax
c92       402fc9    0         4069fe    b3        and r8d, eax
c94       402fcc    0         406a01    b3        and r8d, 0x80808080
c96       402fd3    0         406a08    b3        je 0x402fb9
c98       402fd5    0         406a0e    b3        mov eax, r8d
c9a       402fd8    0         406a11    b3        mov rsi, r14
c9c       402fdb    0         406a14    b3        mov rdi, rbx
c9e       402fde    0         406a17    b3        shr eax, 0x10
ca0       402fe1    0         406a1a    b3        test r8d, 0x8080
ca2       402fe8    0         406a21    b3        cmove r8d, eax
ca4       402fec    0         406a25    b3        lea rax, [r9 + 2]
ca6       402ff0    0         406a29    b3        cmove r9, rax
ca8       402ff4    0         406a2d    b3        add r8b, r8b
caa       402ff7    0         406a30    b3        sbb r9, 3
cac       402ffb    0         406a34    b3        sub r9, r14
cae       402ffe    0         406a37    b3        lea rdx, [rsp + r9]
cb0       403002    0         406a3b    b3        call 0x4021a0
cb2       403007    0         406a40    b3        test eax, eax
cb4       403009    0         406a42    b3        jne 0x4030a8
cb6       40300f    0         406a48    b3        test rbp, rbp
cb8       403012    0         406a4b    b3        mov dword [rbx + 0x4080], r13d
cba       403019    0         406a52    b3        mov qword [rbx + 0x4088], r12
cbc       403020    0         406a59    b3        je 0x403120
cbe       403026    0         406a5f    b3        mov rsi, rbp
cc0       403029    0         406a62    b3        mov rdi, r14
cc2       40302c    0         406a65    b3        call 0x4017f0
cc4       403031    0         406a6a    b3        test eax, eax
cc6       403033    0         406a6c    b3        je 0x403077
cc8       403035    0         406a72    b3        lea r12, [rbx + 0x2078]
cca       40303c    0         406a79    b3        mov edx, 0x1000
ccc       403041    0         406a7e    b3        mov rsi, rbp
cce       403044    0         406a81    b3        mov rdi, r12
cd0       403047    0         406a84    b3        call 0x401640
cd2       40304c    0         406a89    b3        cmp byte [rbx + 0x3077], 0
cd4       403053    0         406a90    b3        jne 0x403190
cd6       403059    0         406a96    b3        lea rdi, [rbx + 0x3078]
cd8       403060    0         406a9d    b3        mov edx, 0x1000
cda       403065    0         406aa2    b3        mov rsi, r12
cdc       403068    0         406aa5    b3        mov dword [rbx + 0x4078], 1
cde       403072    0         406aaf    b3        call 0x401940
ce0       403077    0         406ab4    b3        mov rdi, rbx
ce2       40307a    0         406ab7    b3        call 0x402e50
ce4       40307f    0         406abc    b3        mov rdi, rbx
ce6       403082    0         406abf    b3        call 0x402e60
ce8       403087    0         406ac4    b3        mov rdi, rbx
cea       40308a    0         406ac7    b3        mov ebp, eax
cec       40308c    0         406ac9    b3        call 0x402f20
cee       403091    0         406ace    b3        mov eax, ebp
cf0       403093    0         406ad0    b3        add rsp, 0x3000
cf2       40309a    0         406ad7    b3        pop rbx
cf4       40309b    0         406ad8    b3        pop rbp
cf6       40309c    0         406ad9    b3        pop r12
cf8       40309e    0         406adb    b3        pop r13
cfa       4030a0    0         406add    b3        pop r14
cfc       4030a2    0         406adf    b3        xor dword [rsp], 0x15d2eb7f
d00       4030a8    0         4075e5    b3        mov rdx, r14
d02       4030ab    0         4075e8    b3        mov ecx, dword [rdx]
d04       4030ad    0         4075ea    b3        add rdx, 4
d06       4030b1    0         4075ee    b3        lea eax, [rcx - 0x1010101]
d08       4030b7    0         4075f4    b3        not ecx
d0a       4030b9    0         4075f6    b3        and eax, ecx
d0c       4030bb    0         4075f8    b3        and eax, 0x80808080
d0e       4030c0    0         4075fd    b3        je 0x4030ab
d10       4030c2    0         407603    b3        mov ecx, eax
d12       4030c4    0         407605    b3        mov rsi, r14
d14       4030c7    0         407608    b3        mov rdi, rbx
d16       4030ca    0         40760b    b3        shr ecx, 0x10
d18       4030cd    0         40760e    b3        test eax, 0x8080
d1a       4030d2    0         407613    b3        cmove eax, ecx
d1c       4030d5    0         407616    b3        lea rcx, [rdx + 2]
d1e       4030d9    0         40761a    b3        cmove rdx, rcx
d20       4030dd    0         40761e    b3        add al, al
d22       4030df    0         407620    b3        lea rax, [rsp + 0x2000]
d24       4030e7    0         407628    b3        sbb rdx, 3
d26       4030eb    0         40762c    b3        sub rdx, r14
d28       4030ee    0         40762f    b3        add rdx, rax
d2a       4030f1    0         407632    b3        call 0x4021a0
d2c       4030f6    0         406ae7    b3        test eax, eax
d2e       4030f8    0         406ae9    b3        je 0x40300f
d30       4030fe    0         406aef    b3        lea rdx, [rsp + 0x2000]
d32       403106    0         406af7    b3        xor eax, eax
d34       403108    0         406af9    b3        mov rsi, rsp
d36       40310b    0         406afc    b3        mov edi, 0x405790
d38       403110    0         406b01    b3        call 0x4023d0
d3a       403115    0         406b06    b3        mov eax, 0xffffffff
d3c       40311a    0         406b0b    b3        jmp 0x403093
d40       403120    0         402e1e    b3        mov rdi, rbx
d42       403123    0         402e21    b3        call 0x402ab0
d44       403128    0         4018cc    b3        test eax, eax
d46       40312a    0         4018ce    b3        jne 0x403190
d48       40312c    0         4018d4    b3        cmp byte [rbx + 0x2078], 0
d4a       403133    0         4018db    b3        lea rbp, [rbx + 0x2078]
d4c       40313a    0         4018e2    b3        mov rsi, r14
d4e       40313d    0         4018e5    b3        mov edi, 0x4057ba
d50       403142    0         4018ea    b3        cmovne rsi, rbp
d52       403146    0         4018ee    b3        call 0x404b30
d54       40314b    0         4018f3    b3        mov rdi, rbx
d56       40314e    0         4018f6    b3        call 0x405130
d58       403153    0         4018fb    b3        cmp eax, -1
d5a       403156    0         4018fe    b3        je 0x403190
d5c       403158    0         401904    b3        xor eax, eax
d5e       40315a    0         401906    b3        call 0x402f30
d60       40315f    0         40190b    b3        mov rcx, r12
d62       403162    0         40190e    b3        mov edx, r13d
d64       403165    0         401911    b3        mov rsi, rbx
d66       403168    0         401914    b3        mov rdi, rsp
d68       40316b    0         401917    b3        call 0x4051c0
d6a       403170    0         40191c    b3        cmp dword [rbx + 0x4078], 1
d6c       403177    0         401923    b3        mov r12d, eax
d6e       40317a    0         401926    b3        je 0x40319a
d70       40317c    0         40192c    b3        mov rdi, rbx
d72       40317f    0         40192f    b3        call 0x402220
d74       403184    0         401934    b3        mov eax, r12d
d76       403187    0         401937    b3        jmp 0x403093
d7a       403190    0         40763c    b3        mov eax, 0xffffffff
d7c       403195    0         407641    b3        jmp 0x403093
d7e       40319a    0         402e61    b3        mov rdi, rbp
d80       40319d    0         402e64    b3        call 0x404cb0
d82       4031a2    0         401eaf    b3        jmp 0x40317c
d84       4031a4    0         407557    b3        xor eax, eax
d86       4031a6    0         407559    b3        mov esi, 0x405760
d88       4031ab    0         40755e    b3        mov edi, 0x4057b3
d8a       4031b0    0         407563    b3        call 0x4024a0
d8c       4031b5    0         404cb0    b3        mov eax, 0xffffffff
d8e       4031ba    0         404cb5    b3        jmp 0x403093
d92       4031c0    0         402bc2    b4        xor dword [rsp], 0x15d2eb7f
d94       4031c1    0         402bca    b4        mov edx, 0x1000
d96       4031c6    0         402bcf    b4        mov rbx, rdi
d98       4031c9    0         402bd2    b4        sub rsp, 0x1000
d9a       4031d0    0         402bd9    b4        mov rdi, rsp
d9c       4031d3    0         402bdc    b4        call 0x401940
d9e       4031d8    0         406b10    b4        mov rdi, rsp
da0       4031db    0         406b13    b4        call 0x401760
da2       4031e0    0         406b18    b4        mov rdi, rbx
da4       4031e3    0         406b1b    b4        mov rsi, rax
da6       4031e6    0         406b1e    b4        call 0x401660
da8       4031eb    0         406b23    b4        add rsp, 0x1000
daa       4031f2    0         406b2a    b4        pop rbx
dac       4031f3    0         406b2b    b4        xor dword [rsp], 0x15d2eb7f
db8       40320c    0         401eb4    b5        mov rdi, rbx
dba       40320f    0         401eb7    b5        mov rsi, rax
dbc       403212    0         401eba    b5        pop rbx
dbe       403213    0         401ebb    b5        xor dword [rsp], 0x15d2eb7f
dc2       403220    0         402ecd    b6        xor dword [rsp], 0x15d2eb7f
dc4       403222    0         402ed6    b6        push r12
dc6       403224    0         402ed8    b6        mov r12, rsi
dc8       403227    0         402edb    b6        push rbp
dca       403228    0         402edc    b6        push rbx
dcc       403229    0         402edd    b6        mov rbp, rdx
dce       40322c    0         402ee0    b6        mov rbx, rdi
dd0       40322f    0         402ee3    b6        sub rsp, 8
dd2       403233    0         402ee7    b6        test rdi, rdi
dd4       403236    0         402eea    b6        je 0x4032e8
dd6       40323c    0         402ef0    b6        lea rax, [rdi + 8]
dd8       403240    0         402ef4    b6        mov rcx, rbx
dda       403243    0         402ef7    b6        mov qword [rdi], 0
ddc       40324a    0         402efe    b6        mov qword [rdi + 0xff8], 0
dde       403255    0         402f09    b6        and rax, 0xfffffffffffffff8
de0       403259    0         402f0d    b6        sub rcx, rax
de2       40325c    0         402f10    b6        mov rdi, rax
de4       40325f    0         402f13    b6        xor eax, eax
de6       403261    0         402f15    b6        add ecx, 0x1000
de8       403267    0         402f1b    b6        shr ecx, 3
dea       40326a    0         402f1e    b6        stosq qword [rdi], rax
dec       40326d    0         402ec0    b6        mov rdi, r12
dee       403270    0         402ec3    b6        call 0x401730
df0       403275    0         406b33    b6        mov rsi, r12
df2       403278    0         406b36    b6        mov rdx, rax
df4       40327b    0         406b39    b6        mov rdi, rbx
df6       40327e    0         406b3c    b6        call 0x401640
df8       403283    0         406b41    b6        mov rdi, rbx
dfa       403286    0         406b44    b6        call 0x401730
dfc       40328b    0         406b49    b6        cmp byte [rbx + rax - 1], 0x2f
dfe       403290    0         406b4e    b6        je 0x40329b
e00       403292    0         406b54    b6        mov byte [rbx + rax], 0x2f
e02       403296    0         406b58    b6        mov byte [rbx + rax + 1], 0
e04       40329b    0         406b5d    b6        mov rdi, rbp
e06       40329e    0         406b60    b6        call 0x401730
e08       4032a3    0         406b65    b6        cmp byte [rbp + rax - 1], 0x2f
e0a       4032a8    0         406b6a    b6        je 0x4032c8
e0c       4032aa    0         406b70    b6        mov rsi, rbp
e0e       4032ad    0         406b73    b6        mov rdi, rbx
e10       4032b0    0         406b76    b6        call 0x4019f0
e12       4032b5    0         406b7b    b6        mov rax, rbx
e14       4032b8    0         406b7e    b6        add rsp, 8
e16       4032bc    0         406b82    b6        pop rbx
e18       4032bd    0         406b83    b6        pop rbp
e1a       4032be    0         406b84    b6        pop r12
e1c       4032c0    0         406b86    b6        pop r13
e1e       4032c2    0         406b88    b6        xor dword [rsp], 0x15d2eb7f
e22       4032c8    0         402e9f    b6        lea rdx, [rax - 2]
e24       4032cc    0         402ea3    b6        mov rsi, rbp
e26       4032cf    0         402ea6    b6        mov rdi, rbx
e28       4032d2    0         402ea9    b6        call 0x401790
e2a       4032d7    0         401ec7    b6        add rsp, 8
e2c       4032db    0         401ecb    b6        mov rax, rbx
e2e       4032de    0         401ece    b6        pop rbx
e30       4032df    0         401ecf    b6        pop rbp
e32       4032e0    0         401ed0    b6        pop r12
e34       4032e2    0         401ed2    b6        pop r13
e36       4032e4    0         401ed4    b6        xor dword [rsp], 0x15d2eb7f
e3a       4032e8    0         407c2e    b6        mov rdi, rsi
e3c       4032eb    0         407c31    b6        call 0x401730
e3e       4032f0    0         401edc    b6        mov rdi, rbp
e40       4032f3    0         401edf    b6        mov rbx, rax
e42       4032f6    0         401ee2    b6        call 0x401730
e44       4032fb    0         401ee7    b6        lea r13, [rbx + rax + 2]
e46       403300    0         401eec    b6        mov rdi, r13
e48       403303    0         401eef    b6        call 0x4018e0
e4a       403308    0         401ef4    b6        test rax, rax
e4c       40330b    0         401ef7    b6        mov rbx, rax
e4e       40330e    0         401efa    b6        je 0x403322
e50       403310    0         401f00    b6        mov rdx, r13
e52       403313    0         401f03    b6        xor esi, esi
e54       403315    0         401f05    b6        mov rdi, rax
e56       403318    0         401f08    b6        call 0x401770
e58       40331d    0         401f0d    b6        jmp 0x40326d
e5a       403322    0         402eb3    b6        xor eax, eax
e5c       403324    0         402eb5    b6        jmp 0x4032b8
e64       403340    0         402f5d    b8        xor dword [rsp], 0x15d2eb7f
e66       403344    0         402f68    b8        mov rsi, rdi
e68       403347    0         402f6b    b8        mov rdi, rdx
e6a       40334a    0         402f6e    b8        call 0x401850
e6c       40334f    0         404cba    b8        test rax, rax
e6e       403352    0         404cbd    b8        setne al
e70       403355    0         404cc0    b8        add rsp, 8
e72       403359    0         404cc4    b8        movzx eax, al
e74       40335c    0         404cc7    b8        xor dword [rsp], 0x15d2eb7f
e82       403377    0         406b90    b9        test eax, eax
e84       403379    0         406b92    b9        sete al
e86       40337c    0         406b95    b9        add rsp, 0x98
e88       403383    0         406b9c    b9        movzx eax, al
e8a       403386    0         406b9f    b9        xor dword [rsp], 0x15d2eb7f
e8e       403390    0         4035de    ba        xor dword [rsp], 0x15d2eb7f
e90       403392    0         4035e7    ba        push r14
e92       403394    0         4035e9    ba        mov r14, rdi
e94       403397    0         4035ec    ba        push r13
e96       403399    0         4035ee    ba        push r12
e98       40339b    0         4035f0    ba        mov edi, 0x406453
e9a       4033a0    0         4035f5    ba        push rbp
e9c       4033a1    0         4035f6    ba        push rbx
e9e       4033a2    0         4035f7    ba        mov r12, rsi
ea0       4033a5    0         4035fa    ba        sub rsp, 0x20b8
ea2       4033ac    0         403601    ba        call 0x404a90
ea4       4033b1    0         401f12    ba        test rax, rax
ea6       4033b4    0         401f15    ba        mov rbp, rax
ea8       4033b7    0         401f18    ba        je 0x403489
eaa       4033bd    0         401f1e    ba        mov r13d, 0x1000
eac       4033c3    0         401f24    ba        jmp 0x40342e
eb0       4033c8    0         4076af    ba        mov rbx, rax
eb2       4033cb    0         4076b2    ba        lea rdi, [rsp + 0x90]
eb4       4033d3    0         4076ba    ba        mov ecx, 0x1001
eb6       4033d8    0         4076bf    ba        sub rbx, rbp
eb8       4033db    0         4076c2    ba        mov rsi, rbp
eba       4033de    0         4076c5    ba        cmp rbx, 0x1000
ebc       4033e5    0         4076cc    ba        cmova rbx, r13
ebe       4033e9    0         4076d0    ba        mov rdx, rbx
ec0       4033ec    0         4076d3    ba        call 0x401930
ec2       4033f1    0         40193c    ba        lea rsi, [rsp + 0x90]
ec4       4033f9    0         401944    ba        lea rdi, [rsp + 0x10a0]
ec6       403401    0         40194c    ba        mov rdx, r12
ec8       403404    0         40194f    ba        mov byte [rsp + rbx + 0x90], 0
eca       40340c    0         401957    ba        call 0x403220
ecc       403411    0         40195c    ba        lea rsi, [rsp + 0x10a0]
ece       403419    0         401964    ba        mov rdx, rsp
ed0       40341c    0         401967    ba        mov edi, 1
ed2       403421    0         40196c    ba        call 0x4018b0
ed4       403426    0         401971    ba        test eax, eax
ed6       403428    0         401973    ba        je 0x4034a0
ed8       40342a    0         401979    ba        lea rbp, [r15 + 1]
eda       40342e    0         40197d    ba        mov esi, 0x3a
edc       403433    0         401982    ba        mov rdi, rbp
ede       403436    0         401985    ba        call 0x401750
ee0       40343b    0         40198a    ba        test rax, rax
ee2       40343e    0         40198d    ba        mov r15, rax
ee4       403441    0         401990    ba        jne 0x4033c8
ee6       403443    0         401996    ba        lea rdi, [rsp + 0x90]
ee8       40344b    0         40199e    ba        mov edx, 0x1000
eea       403450    0         4019a3    ba        mov rsi, rbp
eec       403453    0         4019a6    ba        call 0x401640
eee       403458    0         4019ab    ba        lea rsi, [rsp + 0x90]
ef0       403460    0         4019b3    ba        lea rdi, [rsp + 0x10a0]
ef2       403468    0         4019bb    ba        mov rdx, r12
ef4       40346b    0         4019be    ba        call 0x403220
ef6       403470    0         4019c3    ba        lea rsi, [rsp + 0x10a0]
ef8       403478    0         4019cb    ba        mov rdx, rsp
efa       40347b    0         4019ce    ba        mov edi, 1
efc       403480    0         4019d3    ba        call 0x4018b0
efe       403485    0         4019d8    ba        test eax, eax
f00       403487    0         4019da    ba        je 0x4034a0
f02       403489    0         4019e0    ba        mov eax, 0xffffffff
f04       40348e    0         4019e5    ba        add rsp, 0x20b8
f06       403495    0         4019ec    ba        pop rbx
f08       403496    0         4019ed    ba        pop rbp
f0a       403497    0         4019ee    ba        pop r12
f0c       403499    0         4019f0    ba        pop r13
f0e       40349b    0         4019f2    ba        pop r14
f10       40349d    0         4019f4    ba        pop r15
f12       40349f    0         4019f6    ba        xor dword [rsp], 0x15d2eb7f
f14       4034a0    0         402f26    ba        lea rsi, [rsp + 0x10a0]
f16       4034a8    0         402f2e    ba        mov edx, 0x1000
f18       4034ad    0         402f33    ba        mov rdi, r14
f1a       4034b0    0         402f36    ba        call 0x401640
f1c       4034b5    0         4019fe    ba        xor eax, eax
f1e       4034b7    0         401a00    ba        jmp 0x40348e
f22       4034c0    0         40756d    bb        xor dword [rsp], 0x15d2eb7f
f24       4034c2    0         407576    bb        push rbp
f26       4034c3    0         407577    bb        mov r12, rsi
f28       4034c6    0         40757a    bb        push rbx
f2a       4034c7    0         40757b    bb        mov rsi, rdi
f2c       4034ca    0         40757e    bb        mov rbx, rdi
f2e       4034cd    0         407581    bb        mov edx, 0x1000
f30       4034d2    0         407586    bb        mov edi, 0x4057c4
f32       4034d7    0         40758b    bb        sub rsp, 0x1000
f34       4034de    0         407592    bb        call 0x4016c0
f36       4034e3    0         406ba7    bb        cmp rax, -1
f38       4034e7    0         406bab    bb        je 0x403500
f3a       4034e9    0         406bb1    bb        mov byte [rbx + rax], 0
f3c       4034ed    0         406bb5    bb        xor eax, eax
f3e       4034ef    0         406bb7    bb        add rsp, 0x1000
f40       4034f6    0         406bbe    bb        pop rbx
f42       4034f7    0         406bbf    bb        pop rbp
f44       4034f8    0         406bc0    bb        pop r12
f46       4034fa    0         406bc2    bb        xor dword [rsp], 0x15d2eb7f
f4a       403500    0         402f40    bb        cmp byte [r12], 0x2f
f4c       403505    0         402f45    bb        je 0x403519
f4e       403507    0         402f4b    bb        mov esi, 0x2f
f50       40350c    0         402f50    bb        mov rdi, r12
f52       40350f    0         402f53    bb        call 0x401750
f54       403514    0         404ccf    bb        test rax, rax
f56       403517    0         404cd2    bb        je 0x403540
f58       403519    0         404cd8    bb        mov rdx, r12
f5a       40351c    0         404cdb    bb        mov rdi, rbx
f5c       40351f    0         404cde    bb        mov esi, 0x1000
f5e       403524    0         404ce3    bb        call 0x403340
f60       403529    0         404ce8    bb        test eax, eax
f62       40352b    0         404cea    bb        sete al
f64       40352e    0         404ced    bb        add rsp, 0x1000
f66       403535    0         404cf4    bb        movzx eax, al
f68       403538    0         404cf7    bb        pop rbx
f6a       403539    0         404cf8    bb        neg eax
f6c       40353b    0         404cfa    bb        pop rbp
f6e       40353c    0         404cfb    bb        pop r12
f70       40353e    0         404cfd    bb        xor dword [rsp], 0x15d2eb7f
f74       403540    0         4076dd    bb        mov rsi, r12
f76       403543    0         4076e0    bb        mov rdi, rsp
f78       403546    0         4076e3    bb        call 0x403390
f7a       40354b    0         401a05    bb        cmp eax, -1
f7c       40354e    0         401a08    bb        mov ebp, eax
f7e       403550    0         401a0a    bb        je 0x403557
f80       403552    0         401a10    bb        mov rdx, rsp
f82       403555    0         401a13    bb        jmp 0x40351c
f84       403557    0         4076ed    bb        mov edx, 0x1000
f86       40355c    0         4076f2    bb        mov rsi, r12
f88       40355f    0         4076f5    bb        mov rdi, rsp
f8a       403562    0         4076f8    bb        call 0x401640
f8c       403567    0         406bca    bb        cmp byte [rsp + 0xfff], 0
f8e       40356f    0         406bd2    bb        je 0x403552
f90       403571    0         406bd8    bb        mov eax, ebp
f92       403573    0         406bda    bb        jmp 0x4034ef
f96       403580    0         4075b1    bc        jmp 0x4031c0
f9a       403590    0         40759c    bd        xor dword [rsp], 0x15d2eb7f
f9c       403594    0         4075a7    bd        call 0x401710
f9e       403599    0         401a18    bd        mov dword [rax], 0x676b702e
fa0       40359f    0         401a1e    bd        mov byte [rax + 4], 0
fa2       4035a3    0         401a22    bd        add rsp, 8
fa4       4035a7    0         401a26    bd        xor dword [rsp], 0x15d2eb7f
fa8       4035b0    0         407913    be        xor dword [rsp], 0x15d2eb7f
faa       4035b1    0         40791b    be        push rbx
fac       4035b2    0         40791c    be        mov ebp, esi
fae       4035b4    0         40791e    be        mov esi, 0x4057d3
fb0       4035b9    0         407923    be        mov rbx, rdi
fb2       4035bc    0         407926    be        sub rsp, 8
fb4       4035c0    0         40792a    be        call 0x401a40
fb6       4035c5    0         401f29    be        test rax, rax
fb8       0         0         401f2c    be        mov qword [7 + 0x205c8d], rax
fba       4035cf    0         401f33    be        je 0x403b80
fbc       4035d5    0         401f39    be        mov esi, 0x4057ec
fbe       4035da    0         401f3e    be        mov rdi, rbx
fc0       4035dd    0         401f41    be        call 0x401a40
fc2       4035e2    0         401f46    be        test rax, rax
fc4       0         0         401f49    be        mov qword [7 + 0x205c68], rax
fc6       4035ec    0         401f50    be        je 0x403b94
fc8       4035f2    0         401f56    be        mov esi, 0x405809
fca       4035f7    0         401f5b    be        mov rdi, rbx
fcc       4035fa    0         401f5e    be        call 0x401a40
fce       4035ff    0         401f63    be        test rax, rax
fd0       0         0         401f66    be        mov qword [7 + 0x205c43], rax
fd2       403609    0         401f6d    be        je 0x403ba8
fd4       40360f    0         401f73    be        mov esi, 0x405817
fd6       403614    0         401f78    be        mov rdi, rbx
fd8       403617    0         401f7b    be        call 0x401a40
fda       40361c    0         401f80    be        test rax, rax
fdc       0         0         401f83    be        mov qword [7 + 0x205c1e], rax
fde       403626    0         401f8a    be        je 0x403bbc
fe0       40362c    0         401f90    be        mov esi, 0x405830
fe2       403631    0         401f95    be        mov rdi, rbx
fe4       403634    0         401f98    be        call 0x401a40
fe6       403639    0         401f9d    be        test rax, rax
fe8       0         0         401fa0    be        mov qword [7 + 0x205bf9], rax
fea       403643    0         401fa7    be        je 0x403bd0
fec       403649    0         401fad    be        mov esi, 0x40583e
fee       40364e    0         401fb2    be        mov rdi, rbx
ff0       403651    0         401fb5    be        call 0x401a40
ff2       403656    0         401fba    be        test rax, rax
ff4       0         0         401fbd    be        mov qword [7 + 0x205bd4], rax
ff6       403660    0         401fc4    be        je 0x403be4
ff8       403666    0         401fca    be        mov esi, 0x405855
ffa       40366b    0         401fcf    be        mov rdi, rbx
ffc       40366e    0         401fd2    be        call 0x401a40
ffe       403673    0         401fd7    be        test rax, rax
1000      0         0         401fda    be        mov qword [7 + 0x205baf], rax
1002      40367d    0         401fe1    be        je 0x403bf8
1004      403683    0         401fe7    be        mov esi, 0x405865
1006      403688    0         401fec    be        mov rdi, rbx
1008      40368b    0         401fef    be        call 0x401a40
100a      403690    0         401ff4    be        test rax, rax
100c      0         0         401ff7    be        mov qword [7 + 0x205b8a], rax
100e      40369a    0         401ffe    be        je 0x403c0c
1010      4036a0    0         402004    be        mov esi, 0x405874
1012      4036a5    0         402009    be        mov rdi, rbx
1014      4036a8    0         40200c    be        call 0x401a40
1016      4036ad    0         402011    be        test rax, rax
1018      0         0         402014    be        mov qword [7 + 0x205b65], rax
101a      4036b7    0         40201b    be        je 0x403c20
101c      4036bd    0         402021    be        mov esi, 0x405882
101e      4036c2    0         402026    be        mov rdi, rbx
1020      4036c5    0         402029    be        call 0x401a40
1022      4036ca    0         40202e    be        test rax, rax
1024      0         0         402031    be        mov qword [7 + 0x205b40], rax
1026      4036d4    0         402038    be        je 0x403c34
1028      4036da    0         40203e    be        mov esi, 0x4058a8
102a      4036df    0         402043    be        mov rdi, rbx
102c      4036e2    0         402046    be        call 0x401a40
102e      4036e7    0         40204b    be        test rax, rax
1030      0         0         40204e    be        mov qword [7 + 0x205b1b], rax
1032      4036f1    0         402055    be        je 0x403c48
1034      4036f7    0         40205b    be        mov esi, 0x4058d2
1036      4036fc    0         402060    be        mov rdi, rbx
1038      4036ff    0         402063    be        call 0x401a40
103a      403704    0         402068    be        test rax, rax
103c      0         0         40206b    be        mov qword [7 + 0x205af6], rax
103e      40370e    0         402072    be        je 0x403c5c
1040      403714    0         402078    be        mov esi, 0x4058f8
1042      403719    0         40207d    be        mov rdi, rbx
1044      40371c    0         402080    be        call 0x401a40
1046      403721    0         402085    be        test rax, rax
1048      0         0         402088    be        mov qword [7 + 0x205ad1], rax
104a      40372b    0         40208f    be        je 0x403e3c
104c      403731    0         402095    be        cmp ebp, 0x1d
104e      403734    0         402098    be        jg 0x4039f0
1050      40373a    0         40209e    be        mov esi, 0x405956
1052      40373f    0         4020a3    be        mov rdi, rbx
1054      403742    0         4020a6    be        call 0x401a40
1056      403747    0         4020ab    be        test rax, rax
1058      0         0         4020ae    be        mov qword [7 + 0x205a93], rax
105a      403751    0         4020b5    be        je 0x403c70
105c      403757    0         4020bb    be        mov esi, 0x405968
105e      40375c    0         4020c0    be        mov rdi, rbx
1060      40375f    0         4020c3    be        call 0x401a40
1062      403764    0         4020c8    be        test rax, rax
1064      0         0         4020cb    be        mov qword [7 + 0x205a6e], rax
1066      40376e    0         4020d2    be        je 0x403c84
1068      403774    0         4020d8    be        mov esi, 0x405979
106a      403779    0         4020dd    be        mov rdi, rbx
106c      40377c    0         4020e0    be        call 0x401a40
106e      403781    0         4020e5    be        test rax, rax
13d4      403fb3    0         4030af    c4        mov rdi, rbp
1070      0         0         4020e8    be        mov qword [7 + 0x205a49], rax
1072      40378b    0         4020ef    be        je 0x403c98
1074      403791    0         4020f5    be        mov esi, 0x40598e
1076      403796    0         4020fa    be        mov rdi, rbx
1078      403799    0         4020fd    be        call 0x401a40
107a      40379e    0         402102    be        test rax, rax
107c      0         0         402105    be        mov qword [7 + 0x205a24], rax
107e      4037a8    0         40210c    be        je 0x403cac
1080      4037ae    0         402112    be        mov esi, 0x4059b8
1082      4037b3    0         402117    be        mov rdi, rbx
1084      4037b6    0         40211a    be        call 0x401a40
1086      4037bb    0         40211f    be        test rax, rax
1088      0         0         402122    be        mov qword [7 + 0x2059ff], rax
108a      4037c5    0         402129    be        je 0x403cc0
108c      4037cb    0         40212f    be        mov esi, 0x4059c7
108e      4037d0    0         402134    be        mov rdi, rbx
1090      4037d3    0         402137    be        call 0x401a40
1092      4037d8    0         40213c    be        test rax, rax
1094      0         0         40213f    be        mov qword [7 + 0x2059da], rax
1096      4037e2    0         402146    be        je 0x403cd4
1098      4037e8    0         40214c    be        mov esi, 0x4059f1
109a      4037ed    0         402151    be        mov rdi, rbx
109c      4037f0    0         402154    be        call 0x401a40
109e      4037f5    0         402159    be        test rax, rax
10a0      0         0         40215c    be        mov qword [7 + 0x2059b5], rax
10a2      4037ff    0         402163    be        je 0x403ce8
10a4      403805    0         402169    be        mov esi, 0x405a04
10a6      40380a    0         40216e    be        mov rdi, rbx
10a8      40380d    0         402171    be        call 0x401a40
10aa      403812    0         402176    be        test rax, rax
10ac      0         0         402179    be        mov qword [7 + 0x205990], rax
10ae      40381c    0         402180    be        je 0x403d10
10b0      403822    0         402186    be        mov esi, 0x405a1c
10b2      403827    0         40218b    be        mov rdi, rbx
10b4      40382a    0         40218e    be        call 0x401a40
10b6      40382f    0         402193    be        test rax, rax
10b8      0         0         402196    be        mov qword [7 + 0x20596b], rax
10ba      403839    0         40219d    be        je 0x403cfc
10bc      40383f    0         4021a3    be        mov esi, 0x405a32
10be      403844    0         4021a8    be        mov rdi, rbx
10c0      403847    0         4021ab    be        call 0x401a40
10c2      40384c    0         4021b0    be        test rax, rax
10c4      0         0         4021b3    be        mov qword [7 + 0x205946], rax
10c6      403856    0         4021ba    be        je 0x403d38
10c8      40385c    0         4021c0    be        mov esi, 0x405a40
10ca      403861    0         4021c5    be        mov rdi, rbx
10cc      403864    0         4021c8    be        call 0x401a40
10ce      403869    0         4021cd    be        test rax, rax
10d0      0         0         4021d0    be        mov qword [7 + 0x205921], rax
10d2      403873    0         4021d7    be        je 0x403d24
10d4      403879    0         4021dd    be        mov esi, 0x405a68
10d6      40387e    0         4021e2    be        mov rdi, rbx
10d8      403881    0         4021e5    be        call 0x401a40
10da      403886    0         4021ea    be        test rax, rax
10dc      0         0         4021ed    be        mov qword [7 + 0x2058fc], rax
10de      403890    0         4021f4    be        je 0x403d60
10e0      403896    0         4021fa    be        mov esi, 0x405a76
10e2      40389b    0         4021ff    be        mov rdi, rbx
10e4      40389e    0         402202    be        call 0x401a40
10e6      4038a3    0         402207    be        test rax, rax
10e8      0         0         40220a    be        mov qword [7 + 0x2058d7], rax
10ea      4038ad    0         402211    be        je 0x403d4c
10ec      4038b3    0         402217    be        mov esi, 0x405a87
10ee      4038b8    0         40221c    be        mov rdi, rbx
10f0      4038bb    0         40221f    be        call 0x401a40
10f2      4038c0    0         402224    be        test rax, rax
10f4      0         0         402227    be        mov qword [7 + 0x2058b2], rax
10f6      4038ca    0         40222e    be        je 0x403d88
10f8      4038d0    0         402234    be        mov esi, 0x405a9d
10fa      4038d5    0         402239    be        mov rdi, rbx
10fc      4038d8    0         40223c    be        call 0x401a40
10fe      4038dd    0         402241    be        test rax, rax
146c      4040d5    0         40351e    c5        mov rbx, rdi
1100      0         0         402244    be        mov qword [7 + 0x20588d], rax
1102      4038e7    0         40224b    be        je 0x403d74
1104      4038ed    0         402251    be        mov esi, 0x405ab4
1106      4038f2    0         402256    be        mov rdi, rbx
1108      4038f5    0         402259    be        call 0x401a40
110a      4038fa    0         40225e    be        test rax, rax
110c      0         0         402261    be        mov qword [7 + 0x205868], rax
110e      403904    0         402268    be        je 0x403e50
1110      40390a    0         40226e    be        cmp ebp, 0x1d
1112      40390d    0         402271    be        jle 0x403a40
1114      403913    0         402277    be        mov esi, 0x405aef
1116      403918    0         40227c    be        mov rdi, rbx
1118      40391b    0         40227f    be        call 0x401a40
111a      403920    0         402284    be        test rax, rax
111c      0         0         402287    be        mov qword [7 + 0x205832], rax
111e      40392a    0         40228e    be        je 0x403d9c
1120      403930    0         402294    be        mov esi, 0x405b03
1122      403935    0         402299    be        mov rdi, rbx
1124      403938    0         40229c    be        call 0x401a40
1126      40393d    0         4022a1    be        test rax, rax
1128      0         0         4022a4    be        mov qword [7 + 0x20580d], rax
112a      403947    0         4022ab    be        je 0x403dd8
112c      40394d    0         4022b1    be        mov esi, 0x405b13
112e      403952    0         4022b6    be        mov rdi, rbx
1130      403955    0         4022b9    be        call 0x401a40
1132      40395a    0         4022be    be        test rax, rax
1134      0         0         4022c1    be        mov qword [7 + 0x2057e8], rax
1136      403964    0         4022c8    be        je 0x403dc4
1138      40396a    0         4022ce    be        mov esi, 0x405b23
113a      40396f    0         4022d3    be        mov rdi, rbx
113c      403972    0         4022d6    be        call 0x401a40
113e      403977    0         4022db    be        test rax, rax
1140      0         0         4022de    be        mov qword [7 + 0x2057c3], rax
1142      403981    0         4022e5    be        je 0x403db0
1144      403987    0         4022eb    be        mov esi, 0x405b33
1146      40398c    0         4022f0    be        mov rdi, rbx
1148      40398f    0         4022f3    be        call 0x401a40
114a      403994    0         4022f8    be        test rax, rax
114c      0         0         4022fb    be        mov qword [7 + 0x20579e], rax
114e      40399e    0         402302    be        je 0x403e00
1150      4039a4    0         402308    be        mov esi, 0x405b41
1152      4039a9    0         40230d    be        mov rdi, rbx
1154      4039ac    0         402310    be        call 0x401a40
1156      4039b1    0         402315    be        test rax, rax
1158      0         0         402318    be        mov qword [7 + 0x205749], rax
115a      4039bb    0         40231f    be        je 0x403dec
115c      4039c1    0         402325    be        mov esi, 0x406098
115e      4039c6    0         40232a    be        mov rdi, rbx
1160      4039c9    0         40232d    be        call 0x401a40
1162      4039ce    0         402332    be        test rax, rax
1164      0         0         402335    be        mov qword [7 + 0x205724], rax
1166      4039d8    0         40233c    be        je 0x403e64
1168      4039de    0         402342    be        cmp ebp, 0x1d
116a      4039e1    0         402345    be        jg 0x403a90
116c      4039e7    0         40234b    be        xor eax, eax
116e      4039e9    0         40234d    be        add rsp, 8
1170      4039ed    0         402351    be        pop rbx
1172      4039ee    0         402352    be        pop rbp
1174      4039ef    0         402353    be        xor dword [rsp], 0x15d2eb7f
1176      4039f0    0         402ff0    be        mov esi, 0x405906
1178      4039f5    0         402ff5    be        mov rdi, rbx
117a      4039f8    0         402ff8    be        call 0x401a40
117c      4039fd    0         40235b    be        test rax, rax
117e      0         0         40235e    be        mov qword [7 + 0x2057f3], rax
1180      403a07    0         402365    be        je 0x403e14
1182      403a0d    0         40236b    be        mov esi, 0x40592e
1184      403a12    0         402370    be        mov rdi, rbx
1186      403a15    0         402373    be        call 0x401a40
1188      403a1a    0         402378    be        test rax, rax
118a      0         0         40237b    be        mov qword [7 + 0x2057ce], rax
118c      403a24    0         402382    be        jne 0x40373a
118e      403a2a    0         402388    be        mov edi, 0x405939
1190      403a2f    0         40238d    be        call 0x4023d0
1192      403a34    0         402392    be        mov eax, 0xffffffff
1194      403a39    0         402397    be        jmp 0x4039e9
1198      403a40    0         40304d    be        mov esi, 0x405ac7
119a      403a45    0         403052    be        mov rdi, rbx
119c      403a48    0         403055    be        call 0x401a40
119e      403a4d    0         404d05    be        test rax, rax
11a0      0         0         404d08    be        mov qword [7 + 0x202db9], rax
11a2      403a57    0         404d0f    be        je 0x403e28
11a4      403a5d    0         404d15    be        mov esi, 0x405adb
11a6      403a62    0         404d1a    be        mov rdi, rbx
11a8      403a65    0         404d1d    be        call 0x401a40
11aa      403a6a    0         404d22    be        test rax, rax
11ac      0         0         404d25    be        mov qword [7 + 0x202d5c], rax
11ae      403a74    0         404d2c    be        jne 0x403913
11b0      403a7a    0         404d32    be        mov edi, 0x405f88
11b2      403a7f    0         404d37    be        call 0x4023d0
11b4      403a84    0         404d3c    be        mov eax, 0xffffffff
11b6      403a89    0         404d41    be        jmp 0x4039e9
11ba      403a90    0         407843    be        mov esi, 0x405b51
11bc      403a95    0         407848    be        mov rdi, rbx
11be      403a98    0         40784b    be        call 0x401a40
11c0      403a9d    0         401a2e    be        test rax, rax
11c2      0         0         401a31    be        mov qword [7 + 0x206060], rax
11c4      403aa7    0         401a38    be        je 0x403ea0
11c6      403aad    0         401a3e    be        cmp ebp, 0x22
11c8      403ab0    0         401a41    be        jg 0x403b48
11ca      403ab6    0         401a47    be        mov esi, 0x405b76
11cc      403abb    0         401a4c    be        mov rdi, rbx
11ce      403abe    0         401a4f    be        call 0x401a40
11d0      403ac3    0         401a54    be        test rax, rax
11d2      0         0         401a57    be        mov qword [7 + 0x206032], rax
11d4      403acd    0         401a5e    be        je 0x403eb2
11d6      403ad3    0         401a64    be        mov esi, 0x405bb0
11d8      403ad8    0         407d14    be        mov rdi, rbx
11da      403adb    0         407d17    be        call 0x401a40
11dc      403ae0    0         406bdf    be        test rax, rax
11de      0         0         406be2    be        mov qword [7 + 0x200e97], rax
11e0      403aea    0         406be9    be        je 0x403e78
11e2      403af0    0         406bef    be        mov esi, 0x405b85
11e4      403af5    0         406bf4    be        mov rdi, rbx
11e6      403af8    0         406bf7    be        call 0x401a40
11e8      403afd    0         406bfc    be        test rax, rax
11ea      0         0         406bff    be        mov qword [7 + 0x200e6a], rax
11ec      403b07    0         406c06    be        je 0x403e8e
11ee      403b0d    0         406c0c    be        cmp ebp, 0x1f
11f0      403b10    0         406c0f    be        jle 0x4039e7
11f2      403b16    0         406c15    be        mov esi, 0x405b96
11f4      403b1b    0         406c1a    be        mov rdi, rbx
11f6      403b1e    0         406c1d    be        call 0x401a40
11f8      403b23    0         406c22    be        test rax, rax
11fa      0         0         406c25    be        mov qword [7 + 0x200e4c], rax
11fc      403b2d    0         406c2c    be        jne 0x4039e7
11fe      403b33    0         406c32    be        mov edi, 0x4061b8
1200      403b38    0         406c37    be        call 0x4023d0
1202      403b3d    0         406c3c    be        or eax, 0xffffffff
1204      403b40    0         406c3f    be        jmp 0x4039e9
1208      403b48    0         407873    be        mov esi, 0x405b66
120a      403b4d    0         407878    be        mov rdi, rbx
120c      403b50    0         40787b    be        call 0x401a40
120e      403b55    0         404d46    be        test rax, rax
1210      0         0         404d49    be        mov qword [7 + 0x202d40], rax
1212      403b5f    0         404d50    be        jne 0x403ad3
1214      403b65    0         404d56    be        mov edi, 0x406118
1216      403b6a    0         404d5b    be        call 0x4023d0
1218      403b6f    0         404d60    be        or eax, 0xffffffff
121a      403b72    0         404d63    be        jmp 0x4039e9
121e      403b80    0         402f78    be        mov edi, 0x405bc8
1220      403b85    0         402f7d    be        call 0x4023d0
1222      403b8a    0         406c44    be        mov eax, 0xffffffff
1224      403b8f    0         406c49    be        jmp 0x4039e9
1226      403b94    0         407708    be        mov edi, 0x405bf8
1228      403b99    0         40770d    be        call 0x4023d0
122a      403b9e    0         406c4e    be        mov eax, 0xffffffff
122c      403ba3    0         406c53    be        jmp 0x4039e9
122e      403ba8    0         402f87    be        mov edi, 0x405c28
1230      403bad    0         402f8c    be        call 0x4023d0
1232      403bb2    0         404d68    be        mov eax, 0xffffffff
1234      403bb7    0         404d6d    be        jmp 0x4039e9
1236      403bbc    0         402f96    be        mov edi, 0x405c48
1238      403bc1    0         402f9b    be        call 0x4023d0
123a      403bc6    0         406c58    be        mov eax, 0xffffffff
123c      403bcb    0         406c5d    be        jmp 0x4039e9
123e      403bd0    0         407717    be        mov edi, 0x405c78
1240      403bd5    0         40771c    be        call 0x4023d0
1242      403bda    0         406c62    be        mov eax, 0xffffffff
1244      403bdf    0         406c67    be        jmp 0x4039e9
1246      403be4    0         407726    be        mov edi, 0x405c98
1248      403be9    0         40772b    be        call 0x4023d0
124a      403bee    0         404d72    be        mov eax, 0xffffffff
124c      403bf3    0         404d77    be        jmp 0x4039e9
124e      403bf8    0         402fa5    be        mov edi, 0x405cc8
1250      403bfd    0         402faa    be        call 0x4023d0
1252      403c02    0         406c6c    be        mov eax, 0xffffffff
1254      403c07    0         406c71    be        jmp 0x4039e9
1256      403c0c    0         402fb4    be        mov edi, 0x405cf0
1258      403c11    0         402fb9    be        call 0x4023d0
125a      403c16    0         40239c    be        mov eax, 0xffffffff
125c      403c1b    0         4023a1    be        jmp 0x4039e9
125e      403c20    0         407735    be        mov edi, 0x405d18
1260      403c25    0         40773a    be        call 0x4023d0
1262      403c2a    0         4023a6    be        mov eax, 0xffffffff
1264      403c2f    0         4023ab    be        jmp 0x4039e9
1266      403c34    0         407744    be        mov edi, 0x40588c
1268      403c39    0         407749    be        call 0x4023d0
126a      403c3e    0         406c76    be        mov eax, 0xffffffff
126c      403c43    0         406c7b    be        jmp 0x4039e9
126e      403c48    0         402fc3    be        mov edi, 0x4058b4
1270      403c4d    0         402fc8    be        call 0x4023d0
1272      403c52    0         406c80    be        mov eax, 0xffffffff
1274      403c57    0         406c85    be        jmp 0x4039e9
1276      403c5c    0         402fd2    be        mov edi, 0x4058dc
1278      403c61    0         402fd7    be        call 0x4023d0
127a      403c66    0         404d7c    be        mov eax, 0xffffffff
127c      403c6b    0         404d81    be        jmp 0x4039e9
127e      403c70    0         403002    be        mov edi, 0x405d58
1280      403c75    0         403007    be        call 0x4023d0
1282      403c7a    0         404d86    be        mov eax, 0xffffffff
1284      403c7f    0         404d8b    be        jmp 0x4039e9
1286      403c84    0         407753    be        mov edi, 0x405d80
1288      403c89    0         407758    be        call 0x4023d0
128a      403c8e    0         4023b0    be        mov eax, 0xffffffff
128c      403c93    0         4023b5    be        jmp 0x4039e9
128e      403c98    0         407762    be        mov edi, 0x405da8
1290      403c9d    0         407767    be        call 0x4023d0
1292      403ca2    0         406c8a    be        mov eax, 0xffffffff
1294      403ca7    0         406c8f    be        jmp 0x4039e9
1296      403cac    0         407771    be        mov edi, 0x40599a
1298      403cb1    0         407776    be        call 0x4023d0
129a      403cb6    0         4023ba    be        mov eax, 0xffffffff
129c      403cbb    0         4023bf    be        jmp 0x4039e9
129e      403cc0    0         403011    be        mov edi, 0x405dd0
12a0      403cc5    0         403016    be        call 0x4023d0
12a2      403cca    0         406c94    be        mov eax, 0xffffffff
12a4      403ccf    0         406c99    be        jmp 0x4039e9
12a6      403cd4    0         407780    be        mov edi, 0x4059d3
12a8      403cd9    0         407785    be        call 0x4023d0
12aa      403cde    0         404d90    be        mov eax, 0xffffffff
12ac      403ce3    0         404d95    be        jmp 0x4039e9
12ae      403ce8    0         40778f    be        mov edi, 0x405df8
12b0      403ced    0         407794    be        call 0x4023d0
12b2      403cf2    0         406c9e    be        mov eax, 0xffffffff
15a4      4042fa    0         40799b    c9        xor edi, edi
12b4      403cf7    0         406ca3    be        jmp 0x4039e9
12b6      403cfc    0         40779e    be        mov edi, 0x405e50
12b8      403d01    0         4077a3    be        call 0x4023d0
12ba      403d06    0         404d9a    be        mov eax, 0xffffffff
12bc      403d0b    0         404d9f    be        jmp 0x4039e9
12be      403d10    0         403020    be        mov edi, 0x405e20
12c0      403d15    0         403025    be        call 0x4023d0
12c2      403d1a    0         406ca8    be        mov eax, 0xffffffff
12c4      403d1f    0         406cad    be        jmp 0x4039e9
12c6      403d24    0         40302f    be        mov edi, 0x405a4b
12c8      403d29    0         403034    be        call 0x4023d0
12ca      403d2e    0         404da4    be        mov eax, 0xffffffff
12cc      403d33    0         404da9    be        jmp 0x4039e9
12ce      403d38    0         4077ad    be        mov edi, 0x405e78
12d0      403d3d    0         4077b2    be        call 0x4023d0
12d2      403d42    0         404dae    be        mov eax, 0xffffffff
12d4      403d47    0         404db3    be        jmp 0x4039e9
12d6      403d4c    0         4077cb    be        mov edi, 0x405eb8
12d8      403d51    0         4077d0    be        call 0x4023d0
12da      403d56    0         404db8    be        mov eax, 0xffffffff
12dc      403d5b    0         404dbd    be        jmp 0x4039e9
12de      403d60    0         4077bc    be        mov edi, 0x405e98
12e0      403d65    0         4077c1    be        call 0x4023d0
12e2      403d6a    0         404dc2    be        mov eax, 0xffffffff
12e4      403d6f    0         404dc7    be        jmp 0x4039e9
12e6      403d74    0         4077e9    be        mov edi, 0x405f08
12e8      403d79    0         4077ee    be        call 0x4023d0
12ea      403d7e    0         404dcc    be        mov eax, 0xffffffff
12ec      403d83    0         404dd1    be        jmp 0x4039e9
12ee      403d88    0         4077da    be        mov edi, 0x405ee0
12f0      403d8d    0         4077df    be        call 0x4023d0
12f2      403d92    0         4023c4    be        mov eax, 0xffffffff
12f4      403d97    0         4023c9    be        jmp 0x4039e9
12f6      403d9c    0         4077f8    be        mov edi, 0x405fb0
12f8      403da1    0         4077fd    be        call 0x4023d0
12fa      403da6    0         4023ce    be        mov eax, 0xffffffff
12fc      403dab    0         4023d3    be        jmp 0x4039e9
12fe      403db0    0         407816    be        mov edi, 0x406028
1300      403db5    0         40781b    be        call 0x4023d0
1302      403dba    0         406cb2    be        mov eax, 0xffffffff
1304      403dbf    0         406cb7    be        jmp 0x4039e9
1306      403dc4    0         40305f    be        mov edi, 0x406000
1308      403dc9    0         403064    be        call 0x4023d0
130a      403dce    0         4023d8    be        mov eax, 0xffffffff
130c      403dd3    0         4023dd    be        jmp 0x4039e9
130e      403dd8    0         407807    be        mov edi, 0x405fd8
1310      403ddd    0         40780c    be        call 0x4023d0
1312      403de2    0         406cbc    be        mov eax, 0xffffffff
1314      403de7    0         406cc1    be        jmp 0x4039e9
1316      403dec    0         407834    be        mov edi, 0x406070
1318      403df1    0         407839    be        call 0x4023d0
131a      403df6    0         406cc6    be        mov eax, 0xffffffff
131c      403dfb    0         406ccb    be        jmp 0x4039e9
131e      403e00    0         407825    be        mov edi, 0x406050
1320      403e05    0         40782a    be        call 0x4023d0
1322      403e0a    0         4023e2    be        mov eax, 0xffffffff
1324      403e0f    0         4023e7    be        jmp 0x4039e9
1326      403e14    0         407855    be        mov edi, 0x405911
1328      403e19    0         40785a    be        call 0x4023d0
132a      403e1e    0         4023ec    be        mov eax, 0xffffffff
132c      403e23    0         4023f1    be        jmp 0x4039e9
132e      403e28    0         407864    be        mov edi, 0x405f60
1330      403e2d    0         407869    be        call 0x4023d0
1332      403e32    0         4023f6    be        mov eax, 0xffffffff
1334      403e37    0         4023fb    be        jmp 0x4039e9
1336      403e3c    0         402fe1    be        mov edi, 0x405d38
1338      403e41    0         402fe6    be        call 0x4023d0
133a      403e46    0         406cd0    be        mov eax, 0xffffffff
133c      403e4b    0         406cd5    be        jmp 0x4039e9
133e      403e50    0         40303e    be        mov edi, 0x405f38
1340      403e55    0         403043    be        call 0x4023d0
1342      403e5a    0         406cda    be        mov eax, 0xffffffff
17f6      4047e5    0         40322a    cb        mov rdi, r13
1344      403e5f    0         406cdf    be        jmp 0x4039e9
1346      403e64    0         40306e    be        mov edi, 0x4060b8
1348      403e69    0         403073    be        call 0x4023d0
134a      403e6e    0         402400    be        mov eax, 0xffffffff
134c      403e73    0         402405    be        jmp 0x4039e9
134e      403e78    0         40308c    be        xor eax, eax
1350      403e7a    0         40308e    be        mov edi, 0x406168
1352      403e7f    0         403093    be        call 0x4023d0
1354      403e84    0         406ce4    be        mov eax, 0xffffffff
1356      403e89    0         406ce9    be        jmp 0x4039e9
1358      403e8e    0         40309d    be        mov edi, 0x406190
135a      403e93    0         4030a2    be        call 0x4023d0
135c      403e98    0         40240a    be        or eax, 0xffffffff
135e      403e9b    0         40240d    be        jmp 0x4039e9
1360      403ea0    0         40307d    be        mov edi, 0x4060f0
1362      403ea5    0         403082    be        call 0x4023d0
1364      403eaa    0         402412    be        or eax, 0xffffffff
1366      403ead    0         402415    be        jmp 0x4039e9
1368      403eb2    0         407885    be        mov edi, 0x406140
136a      403eb7    0         40788a    be        call 0x4023d0
136c      403ebc    0         404dd6    be        or eax, 0xffffffff
136e      403ebf    0         404dd9    be        jmp 0x4039e9
1374      0         0         4031f0    bf        mov rax, qword [7 + 0x204949]
1376      403ed7    0         4031f7    bf        jmp rax
137a      0         0         40796a    c0        mov rax, qword [7 + 0x2001d7]
137c      403ee7    0         407971    c0        jmp rax
1380      0         0         4079b0    c1        mov rax, qword [7 + 0x2000e9]
1382      403ef7    0         4079b7    c1        jmp rax
1386      0         0         40362b    c2        mov rax, qword [7 + 0x204486]
1388      403f07    0         403632    c2        jmp rax
138c      0         0         403611    c3        mov rax, qword [7 + 0x2044a8]
138e      403f17    0         403618    c3        jmp rax
1392      403f20    0         403157    c4        xor dword [rsp], 0x15d2eb7f
1394      403f22    0         403160    c4        push r13
1396      403f24    0         403162    c4        push r12
1398      403f26    0         403164    c4        push rbp
139a      403f27    0         403165    c4        xor r12d, r12d
139c      403f2a    0         403168    c4        push rbx
139e      403f2b    0         403169    c4        mov rbp, rdi
13a0      403f2e    0         40316c    c4        sub rsp, 0x4010
13a2      0         0         403173    c4        mov rax, qword [7 + 0x204a26]
13a4      403f3c    0         40317a    c4        mov rbx, qword [rdi + 0x10]
13a6      403f40    0         40317e    c4        cmp rbx, qword [rdi + 0x18]
13a8      403f44    0         403182    c4        mov dword [rax], 1
13aa      0         0         403188    c4        mov rax, qword [7 + 0x204a21]
13ac      403f51    0         40318f    c4        mov dword [rax], 1
13ae      0         0         403195    c4        mov rax, qword [7 + 0x204a24]
13b0      403f5e    0         40319c    c4        mov dword [rax], 1
13b2      0         0         4031a2    c4        mov rax, qword [7 + 0x2049ef]
13b4      403f6b    0         4031a9    c4        mov dword [rax], 1
13b6      0         0         4031af    c4        mov rax, qword [7 + 0x2049f2]
13b8      403f78    0         4031b6    c4        mov dword [rax], 1
13ba      0         0         4031bc    c4        mov rax, qword [7 + 0x2049c5]
13bc      403f85    0         4031c3    c4        mov dword [rax], 0
13be      403f8b    0         4031c9    c4        jb 0x403fc4
13c0      403f8d    0         4031cf    c4        jmp 0x40406f
13c4      403f98    0         4078ca    c4        cmp al, 0x75
13c6      403f9a    0         4078cc    c4        je 0x404000
13c8      403f9c    0         4078d2    c4        cmp al, 0x76
13ca      403f9e    0         4078d4    c4        jne 0x403fb0
13cc      0         0         4078da    c4        mov rax, qword [7 + 0x2002a7]
13ce      403fa7    0         4078e1    c4        mov dword [rax], 1
13d0      403fad    0         4078e7    c4        nop dword [rax]
13d2      403fb0    0         4030ac    c4        mov rsi, rbx
13d6      403fb6    0         4030b2    c4        call 0x401ca0
13d8      403fbb    0         404dde    c4        cmp qword [rbp + 0x18], rax
13da      403fbf    0         404de2    c4        mov rbx, rax
13dc      403fc2    0         404de5    c4        jbe 0x404028
13de      403fc4    0         404deb    c4        cmp byte [rbx + 0x11], 0x6f
13e0      403fc8    0         404def    c4        jne 0x403fb0
13e2      403fca    0         404df5    c4        lea rsi, [rbx + 0x12]
13e4      403fce    0         404df9    c4        mov edi, 0x4061e4
13e6      403fd3    0         404dfe    c4        mov ecx, 4
13e8      403fd8    0         404e03    c4        cmpsb byte [rsi], byte [rdi]
13ea      403fda    0         404e05    c4        je 0x403fb0
13ec      403fdc    0         404e0b    c4        movzx eax, byte [rbx + 0x12]
13ee      403fe0    0         404e0f    c4        cmp al, 0x57
13f0      403fe2    0         404e11    c4        je 0x404010
13f2      403fe4    0         404e17    c4        jg 0x403f98
13f4      403fe6    0         404e1d    c4        cmp al, 0x4f
13f6      403fe8    0         404e1f    c4        jne 0x403fb0
13f8      0         0         404e25    c4        mov rax, qword [7 + 0x202d64]
13fa      403ff1    0         404e2c    c4        mov dword [rax], 1
13fc      403ff7    0         404e32    c4        jmp 0x403fb0
1400      404000    0         40361a    c4        mov r12d, 1
1402      404006    0         403620    c4        jmp 0x403fb0
1406      0         0         4078ae    c4        mov eax, dword [6 + 0x2104ac]
1408      404016    0         4078b4    c4        test eax, eax
140a      404018    0         4078b6    c4        je 0x404088
140c      40401a    0         4078bc    c4        lea rdi, [rbx + 0x14]
140e      40401e    0         4078c0    c4        call 0x403f10
1410      404023    0         404e37    c4        jmp 0x403fb0
1414      404028    0         407894    c4        test r12d, r12d
1416      40402b    0         407897    c4        je 0x40406f
1418      0         0         40789d    c4        mov rdi, qword [7 + 0x20019c]
141a      404034    0         4078a4    c4        call 0x4018f0
141c      0         0         406cee    c4        mov rdi, qword [7 + 0x200d5b]
141e      404040    0         406cf5    c4        call 0x4018f0
1420      0         0         406cfa    c4        mov rdi, qword [7 + 0x200d47]
1422      40404c    0         406d01    c4        xor esi, esi
1424      40404e    0         406d03    c4        call 0x401740
1426      0         0         406d08    c4        mov rdi, qword [7 + 0x200d31]
1428      40405a    0         406d0f    c4        xor esi, esi
142a      40405c    0         406d11    c4        call 0x401740
142c      0         0         406d16    c4        mov rdi, qword [7 + 0x200d33]
142e      404068    0         406d1d    c4        xor esi, esi
1430      40406a    0         406d1f    c4        call 0x401740
1432      40406f    0         406d24    c4        xor eax, eax
1434      404071    0         406d26    c4        add rsp, 0x4010
1436      404078    0         406d2d    c4        pop rbx
1438      404079    0         406d2e    c4        pop rbp
143a      40407a    0         406d2f    c4        pop r12
143c      40407c    0         406d31    c4        pop r13
143e      40407e    0         406d33    c4        pop r14
1440      404080    0         406d35    c4        xor dword [rsp], 0x15d2eb7f
1444      404088    0         407c3b    c4        lea r14, [rbx + 0x14]
1446      40408c    0         407c3f    c4        mov edx, 0x1000
1448      404091    0         407c44    c4        mov rdi, rsp
144a      404094    0         407c47    c4        mov rsi, r14
144c      404097    0         407c4a    c4        call 0x4016b0
144e      40409c    0         404e3c    c4        cmp rax, -1
1450      4040a0    0         404e40    c4        mov r13, rax
1452      4040a3    0         404e43    c4        je 0x4040b3
1454      4040a5    0         404e49    c4        mov rdi, rsp
1456      0         0         404e4c    c4        call qword [6 + 0x202c6e]
1458      4040ae    0         404e52    c4        jmp 0x403fb0
145a      4040b3    0         4078f5    c4        xor eax, eax
145c      4040b5    0         4078f7    c4        mov rsi, r14
145e      4040b8    0         4078fa    c4        mov edi, 0x406258
1460      4040bd    0         4078ff    c4        call 0x4023d0
1462      4040c2    0         404e57    c4        mov eax, r13d
1464      4040c5    0         404e5a    c4        jmp 0x404071
1468      4040d0    0         403512    c5        xor dword [rsp], 0x15d2eb7f
146a      4040d1    0         40351a    c5        lea rsi, [rdi + 0x38]
146e      4040d8    0         403521    c5        mov edx, 0x40
1470      4040dd    0         403526    c5        sub rsp, 0x1040
1472      0         0         40352d    c5        mov eax, dword [6 + 0x204529]
1474      4040ea    0         403533    c5        mov rdi, rsp
1476      4040ed    0         403536    c5        sub eax, 0x14
1478      4040f0    0         403539    c5        cmp eax, 9
147a      4040f3    0         40353c    c5        setbe al
147c      4040f6    0         40353f    c5        movzx eax, al
147e      0         0         403542    c5        mov dword [6 + 0x214818], eax
1480      4040ff    0         403548    c5        call 0x401640
1482      404104    0         406d3d    c5        cmp byte [rsp + 0x3f], 0
1484      404109    0         406d42    c5        jne 0x404148
1486      40410b    0         406d48    c5        lea rsi, [rbx + 0x3078]
1488      404112    0         406d4f    c5        lea rdi, [rsp + 0x40]
148a      404117    0         406d54    c5        mov rdx, rsp
148c      40411a    0         406d57    c5        call 0x403220
148e      40411f    0         406d5c    c5        lea rdi, [rsp + 0x40]
1490      404124    0         406d61    c5        call 0x405120
1492      404129    0         406d66    c5        test rax, rax
1494      40412c    0         406d69    c5        je 0x40415b
1496      0         0         406d6f    c5        mov esi, dword [6 + 0x200ce7]
1498      404134    0         406d75    c5        mov rdi, rax
149a      404137    0         406d78    c5        call 0x4035b0
149c      40413c    0         406d7d    c5        add rsp, 0x1040
149e      404143    0         406d84    c5        pop rbx
14a0      404144    0         406d85    c5        xor dword [rsp], 0x15d2eb7f
14a4      404148    0         4030c2    c5        xor eax, eax
14a6      40414a    0         4030c4    c5        mov edi, 0x4062a0
14a8      40414f    0         4030c9    c5        call 0x4023d0
14aa      404154    0         404e5f    c5        mov eax, 0xffffffff
14ac      404159    0         404e64    c5        jmp 0x40413c
14ae      40415b    0         4030d3    c5        call 0x401a60
14b0      404160    0         40241a    c5        lea rsi, [rsp + 0x40]
14b2      404165    0         40241f    c5        mov rdx, rax
14b4      404168    0         402422    c5        mov edi, 0x4062c0
14b6      40416d    0         402427    c5        xor eax, eax
14b8      40416f    0         402429    c5        call 0x4023d0
14ba      404174    0         40242e    c5        mov eax, 0xffffffff
14bc      404179    0         402433    c5        jmp 0x40413c
14c6      404190    0         40311a    c7        xor dword [rsp], 0x15d2eb7f
14c8      404191    0         403122    c7        push rbx
14ca      404192    0         403123    c7        mov rbp, rdi
14cc      404195    0         403126    c7        mov rbx, rbp
14ce      404198    0         403129    c7        sub rsp, 8
14d0      40419c    0         40312d    c7        mov rdi, qword [rdi]
14d2      40419f    0         403130    c7        test rdi, rdi
14d4      4041a2    0         403133    c7        je 0x4041b9
14d6      4041a4    0         403139    c7        nop dword [rax]
14d8      4041a8    0         4030dd    c7        add rbx, 8
14da      4041ac    0         4030e1    c7        call 0x401610
14dc      4041b1    0         404e69    c7        mov rdi, qword [rbx]
14de      4041b4    0         404e6c    c7        test rdi, rdi
14e0      4041b7    0         404e6f    c7        jne 0x4041a8
14e2      4041b9    0         404e75    c7        add rsp, 8
14e4      4041bd    0         404e79    c7        mov rdi, rbp
14e6      4041c0    0         404e7c    c7        pop rbx
14e8      4041c1    0         404e7d    c7        pop rbp
14ea      4041c2    0         404e7e    c7        xor dword [rsp], 0x15d2eb7f
14ee      4041d0    0         4079b9    c8        xor dword [rsp], 0x15d2eb7f
14f0      4041d2    0         4079c2    c8        push r14
14f2      4041d4    0         4079c4    c8        push r13
14f4      4041d6    0         4079c6    c8        push r12
14f6      4041d8    0         4079c8    c8        mov r13, rsi
14f8      4041db    0         4079cb    c8        push rbp
14fa      4041dc    0         4079cc    c8        push rbx
14fc      4041dd    0         4079cd    c8        xor esi, esi
14fe      4041df    0         4079cf    c8        mov ebx, edi
1500      4041e1    0         4079d1    c8        xor edi, edi
1502      4041e3    0         4079d3    c8        sub rsp, 0x18
1504      4041e7    0         4079d7    c8        call 0x401960
1506      4041ec    0         404e8a    c8        mov rdi, rax
1508      4041ef    0         404e8d    c8        call 0x4017b0
150a      4041f4    0         404e92    c8        test rax, rax
150c      4041f7    0         404e95    c8        mov r15, rax
150e      4041fa    0         404e98    c8        je 0x4042da
1510      404200    0         404e9e    c8        lea r14d, [rbx + 1]
1512      404204    0         404ea2    c8        mov esi, 1
1514      404209    0         404ea7    c8        movsxd r14, r14d
1516      40420c    0         404eaa    c8        lea rax, [r14*8]
1518      404214    0         404eb2    c8        mov rdi, rax
151a      404217    0         404eb5    c8        mov qword [rsp + 8], rax
151c      40421c    0         404eba    c8        call 0x4017e0
151e      404221    0         404ebf    c8        test rax, rax
1520      404224    0         404ec2    c8        mov rbp, rax
1522      404227    0         404ec5    c8        je 0x4042da
1524      40422d    0         404ecb    c8        xor edi, edi
1526      40422f    0         404ecd    c8        mov esi, 0x4054b8
1528      404234    0         404ed2    c8        call 0x401960
152a      404239    0         404ed7    c8        test ebx, ebx
152c      40423b    0         404ed9    c8        jle 0x4042a8
152e      40423d    0         404edf    c8        sub ebx, 1
1530      404240    0         404ee2    c8        xor r14d, r14d
1532      404243    0         404ee5    c8        add rbx, 1
1534      404247    0         404ee9    c8        jmp 0x404259
1538      404250    0         403108    c8        add r14, 1
153a      404254    0         40310c    c8        cmp r14, rbx
153c      404257    0         40310f    c8        je 0x4042a8
153e      404259    0         40794b    c8        xor esi, esi
1540      40425b    0         40794d    c8        mov rdi, qword [r13 + r14*8]
1542      0         0         407952    c8        call qword [6 + 0x200138]
1544      404266    0         406d8d    c8        test rax, rax
1546      404269    0         406d90    c8        mov qword [rbp + r14*8], rax
1548      40426e    0         406d95    c8        jne 0x404250
154a      404270    0         406d9b    c8        mov rdi, rbp
154c      404273    0         406d9e    c8        call 0x404190
154e      404278    0         406da3    c8        mov rdi, r15
1550      40427b    0         406da6    c8        call 0x401610
1552      404280    0         406dab    c8        lea esi, [r14 + 1]
1554      404284    0         406daf    c8        xor eax, eax
1556      404286    0         406db1    c8        mov edi, 0x4062f0
1558      40428b    0         406db6    c8        call 0x4023d0
155a      404290    0         406dbb    c8        xor eax, eax
155c      404292    0         406dbd    c8        add rsp, 0x18
155e      404296    0         406dc1    c8        pop rbx
1560      404297    0         406dc2    c8        pop rbp
1562      404298    0         406dc3    c8        pop r12
1564      40429a    0         406dc5    c8        pop r13
1566      40429c    0         406dc7    c8        pop r14
1568      40429e    0         406dc9    c8        pop r15
156a      4042a0    0         406dcb    c8        xor dword [rsp], 0x15d2eb7f
156e      4042a8    0         4030eb    c8        mov rax, qword [rsp + 8]
1570      4042ad    0         4030f0    c8        mov rsi, r15
1572      4042b0    0         4030f3    c8        xor edi, edi
1574      4042b2    0         4030f5    c8        mov qword [rbp + rax - 8], 0
1576      4042bb    0         4030fe    c8        call 0x401960
1578      4042c0    0         406dd3    c8        mov rdi, r15
157a      4042c3    0         406dd6    c8        call 0x401610
157c      4042c8    0         406ddb    c8        add rsp, 0x18
157e      4042cc    0         406ddf    c8        mov rax, rbp
1580      4042cf    0         406de2    c8        pop rbx
1582      4042d0    0         406de3    c8        pop rbp
1584      4042d1    0         406de4    c8        pop r12
1586      4042d3    0         406de6    c8        pop r13
1588      4042d5    0         406de8    c8        pop r14
158a      4042d7    0         406dea    c8        pop r15
158c      4042d9    0         406dec    c8        xor dword [rsp], 0x15d2eb7f
158e      4042da    0         407934    c8        xor eax, eax
1590      4042dc    0         407936    c8        mov edi, 0x4061e9
1592      4042e1    0         40793b    c8        call 0x4023d0
1594      4042e6    0         404eee    c8        xor eax, eax
1596      4042e8    0         404ef0    c8        jmp 0x404292
159a      4042f0    0         40798a    c9        xor dword [rsp], 0x15d2eb7f
159c      4042f1    0         407992    c9        push rbx
159e      4042f2    0         407993    c9        mov rbp, rsi
15a0      4042f5    0         407996    c9        mov rbx, rdi
15a2      4042f8    0         407999    c9        xor esi, esi
15a6      4042fc    0         40799d    c9        sub rsp, 0x18
15a8      404300    0         4079a1    c9        mov qword [rsp + 8], rdx
15aa      404305    0         4079a6    c9        call 0x401960
15ac      40430a    0         404ef5    c9        mov rdi, rax
15ae      40430d    0         404ef8    c9        call 0x4017b0
15b0      404312    0         404efd    c9        xor edi, edi
15b2      404314    0         404eff    c9        mov esi, 0x4054b8
15b4      0         0         404f04    c9        mov qword [7 + 0x212e4d], rax
15b6      404320    0         404f0b    c9        call 0x401960
15b8      404325    0         404f10    c9        mov rdi, rbp
15ba      404328    0         404f13    c9        lea rsi, [rsp + 8]
15bc      0         0         404f18    c9        call qword [6 + 0x202b72]
15be      0         0         404f1e    c9        mov rsi, qword [7 + 0x212e33]
15c0      40433a    0         404f25    c9        mov rbp, rax
15c2      40433d    0         404f28    c9        xor edi, edi
15c4      40433f    0         404f2a    c9        call 0x401960
15c6      404344    0         404f2f    c9        test rbp, rbp
15c8      404347    0         404f32    c9        je 0x404370
15ca      404349    0         404f38    c9        mov rdx, qword [rsp + 8]
15cc      40434e    0         404f3d    c9        mov rsi, rbp
15ce      404351    0         404f40    c9        mov rdi, rbx
15d0      404354    0         404f43    c9        call 0x4017d0
15d2      404359    0         404f48    c9        mov rdi, rbp
15d4      40435c    0         404f4b    c9        call 0x401610
15d6      404361    0         404f50    c9        mov rax, rbx
15d8      404364    0         404f53    c9        add rsp, 0x18
15da      404368    0         404f57    c9        pop rbx
15dc      404369    0         404f58    c9        pop rbp
15de      40436a    0         404f59    c9        xor dword [rsp], 0x15d2eb7f
15e2      404370    0         40795d    c9        xor eax, eax
15e4      404372    0         40795f    c9        jmp 0x404364
15e8      404380    0         402d8e    ca        xor dword [rsp], 0x15d2eb7f
15ea      404381    0         402d96    ca        push rbx
15ec      404382    0         402d97    ca        lea rsi, [rdi + 0x78]
15ee      404386    0         402d9b    ca        mov rbx, rdi
15f0      404389    0         402d9e    ca        mov edx, 0x1000
15f2      40438e    0         402da3    ca        sub rsp, 8
15f4      0         0         402da7    ca        mov r10d, dword [7 + 0x214fb2]
15f6      404399    0         402dae    ca        test r10d, r10d
15f8      40439c    0         402db1    ca        je 0x4044a8
15fa      4043a2    0         402db7    ca        mov edi, 0x616d40
15fc      4043a7    0         402dbc    ca        call 0x401640
15fe      4043ac    0         404f61    ca        mov edi, 0x616d40
1600      4043b1    0         404f66    ca        call 0x403ee0
1602      0         0         404f6b    ca        mov r9d, dword [7 + 0x212dee]
1604      4043bd    0         404f72    ca        lea rbp, [rbx + 0x3078]
1606      4043c4    0         404f79    ca        test r9d, r9d
1608      4043c7    0         404f7c    ca        jne 0x4044d0
160a      4043cd    0         404f82    ca        mov edx, 0x1000
160c      4043d2    0         404f87    ca        mov rsi, rbp
160e      4043d5    0         404f8a    ca        mov edi, 0x60dc80
1610      4043da    0         404f8f    ca        call 0x4042f0
1612      4043df    0         404f94    ca        test rax, rax
1614      4043e2    0         404f97    ca        je 0x404654
1616      4043e8    0         404f9d    ca        mov edi, 0x60dc80
1618      0         0         404fa2    ca        call qword [6 + 0x202b98]
161a      0         0         404fa8    ca        mov r8d, dword [7 + 0x212db1]
161c      4043fa    0         404faf    ca        mov rdi, rbp
161e      4043fd    0         404fb2    ca        test r8d, r8d
1620      404400    0         404fb5    ca        je 0x4044ff
1622      404406    0         404fbb    ca        call 0x401730
1624      40440b    0         404fc0    ca        mov ecx, 0x200e
1626      404410    0         404fc5    ca        mov rdx, rax
1628      404413    0         404fc8    ca        mov rsi, rbp
162a      404416    0         404fcb    ca        mov edi, 0x60bc40
162c      40441b    0         404fd0    ca        call 0x401930
162e      404420    0         404fd5    ca        mov rdi, rbx
1630      404423    0         404fd8    ca        call 0x403f20
1632      0         0         404fdd    ca        call qword [6 + 0x202b7d]
1634      0         0         404fe3    ca        mov edx, dword [6 + 0x212d77]
1636      404434    0         404fe9    ca        test edx, edx
1638      404436    0         404feb    ca        je 0x4045e0
17f8      4047e8    0         40322d    cb        xor eax, eax
163a      40443c    0         404ff1    ca        mov edi, 0x60bc40
163c      404441    0         404ff6    ca        call 0x403ef0
163e      0         0         404ffb    ca        mov eax, dword [6 + 0x212d5f]
1640      40444c    0         405001    ca        mov rsi, qword [rbx + 0x4088]
1642      404453    0         405008    ca        mov edi, dword [rbx + 0x4080]
1644      404459    0         40500e    ca        test eax, eax
1646      40445b    0         405010    ca        jne 0x4045f0
1648      404461    0         405016    ca        call 0x4041d0
164a      404466    0         40501b    ca        test rax, rax
164c      404469    0         40501e    ca        mov rbp, rax
164e      40446c    0         405021    ca        je 0x40462a
1650      404472    0         405027    ca        mov edi, dword [rbx + 0x4080]
1652      404478    0         40502d    ca        xor edx, edx
1654      40447a    0         40502f    ca        mov rsi, rax
1656      0         0         405032    ca        call qword [6 + 0x202a80]
1658      404483    0         405038    ca        mov rdi, rbp
165a      404486    0         40503b    ca        call 0x404190
165c      0         0         405040    ca        call qword [6 + 0x202ae2]
165e      404491    0         405046    ca        test rax, rax
1660      404494    0         405049    ca        jne 0x404600
1662      40449a    0         40504f    ca        add rsp, 8
1664      40449e    0         405053    ca        pop rbx
1666      40449f    0         405054    ca        pop rbp
1668      4044a0    0         405055    ca        xor dword [rsp], 0x15d2eb7f
166c      4044a8    0         403477    ca        mov edi, 0x612d00
166e      4044ad    0         40347c    ca        call 0x4042f0
1670      4044b2    0         40505d    ca        test rax, rax
1672      4044b5    0         405060    ca        je 0x404616
1674      4044bb    0         405066    ca        mov edi, 0x612d00
1676      0         0         40506b    ca        call qword [6 + 0x202ad7]
1678      4044c6    0         405071    ca        jmp 0x4043b6
167c      4044d0    0         407973    ca        mov edx, 0x1001
167e      4044d5    0         407978    ca        mov rsi, rbp
1680      4044d8    0         40797b    ca        mov edi, 0x611cc0
1682      4044dd    0         407980    ca        call 0x401940
1684      4044e2    0         406df4    ca        mov edi, 0x611cc0
1686      4044e7    0         406df9    ca        call 0x403ed0
1688      0         0         406dfe    ca        mov r8d, dword [7 + 0x210f5b]
168a      4044f3    0         406e05    ca        mov rdi, rbp
168c      4044f6    0         406e08    ca        test r8d, r8d
168e      4044f9    0         406e0b    ca        jne 0x404406
1690      4044ff    0         406e11    ca        call 0x401730
1692      404504    0         406e16    ca        mov ecx, 0x200e
1694      404509    0         406e1b    ca        mov rdx, rax
1696      40450c    0         406e1e    ca        mov rsi, rbp
1698      40450f    0         406e21    ca        mov edi, 0x60bc40
169a      404514    0         406e26    ca        call 0x401930
169c      404519    0         406e2b    ca        mov edx, 0x60bc40
169e      40451e    0         406e30    ca        mov ecx, dword [rdx]
16a0      404520    0         406e32    ca        add rdx, 4
16a2      404524    0         406e36    ca        lea eax, [rcx - 0x1010101]
16a4      40452a    0         406e3c    ca        not ecx
16a6      40452c    0         406e3e    ca        and eax, ecx
16a8      40452e    0         406e40    ca        and eax, 0x80808080
16aa      404533    0         406e45    ca        je 0x40451e
16ac      404535    0         406e4b    ca        mov ecx, eax
16ae      404537    0         406e4d    ca        mov esi, 0x2f
16b0      40453c    0         406e52    ca        mov edi, 0x3a
16b2      404541    0         406e57    ca        shr ecx, 0x10
16b4      404544    0         406e5a    ca        test eax, 0x8080
16b6      404549    0         406e5f    ca        cmove eax, ecx
16b8      40454c    0         406e62    ca        lea rcx, [rdx + 2]
16ba      404550    0         406e66    ca        cmove rdx, rcx
16bc      404554    0         406e6a    ca        add al, al
16be      404556    0         406e6c    ca        sbb rdx, 3
16c0      40455a    0         406e70    ca        sub rdx, 0x60bc40
16c2      404561    0         406e77    ca        lea rcx, [rdx + 0x60bc40]
16c4      404568    0         406e7e    ca        mov word [rdx + 0x60bc40], si
16c6      40456f    0         406e85    ca        lea rax, [rdx + 0x60bc41]
16c8      404576    0         406e8c    ca        mov rdx, 0x62696c5f65736162
16ca      404580    0         406e96    ca        mov qword [rcx + 1], rdx
16cc      404584    0         406e9a    ca        mov rcx, 0x70697a2e79726172
16ce      40458e    0         406ea4    ca        mov word [rax + 0x10], di
16d0      404592    0         406ea8    ca        mov qword [rax + 8], rcx
16d2      404596    0         406eac    ca        mov rdi, rbp
16d4      404599    0         406eaf    ca        call 0x401730
16d6      40459e    0         406eb4    ca        mov ecx, 0x200e
16d8      4045a3    0         406eb9    ca        mov rdx, rax
16da      4045a6    0         406ebc    ca        mov rsi, rbp
16dc      4045a9    0         406ebf    ca        mov edi, 0x60bc40
16de      4045ae    0         406ec4    ca        call 0x401a30
16e0      4045b3    0         406ec9    ca        mov edx, 0x1000
16e2      4045b8    0         406ece    ca        mov esi, 0x60bc40
16e4      4045bd    0         406ed3    ca        mov edi, 0x607c00
16e6      4045c2    0         406ed8    ca        call 0x4042f0
16e8      4045c7    0         406edd    ca        test rax, rax
16ea      4045ca    0         406ee0    ca        je 0x404640
16ec      4045cc    0         406ee6    ca        mov edi, 0x607c00
16ee      0         0         406eeb    ca        call qword [6 + 0x200c67]
16f0      4045d7    0         406ef1    ca        jmp 0x404420
16f4      4045e0    0         4031d4    ca        mov edi, 0x607c00
16f6      0         0         4031d9    ca        call qword [6 + 0x2048c1]
16f8      4045eb    0         405076    ca        jmp 0x404446
16fa      4045f0    0         4031e4    ca        xor edx, edx
16fc      4045f2    0         4031e6    ca        call 0x403f00
16fe      4045f7    0         406ef6    ca        jmp 0x40448b
1702      404600    0         4079f2    ca        xor eax, eax
1704      404602    0         4079f4    ca        mov edi, 0x4063d0
1706      404607    0         4079f9    ca        call 0x4023d0
1708      40460c    0         40507b    ca        mov eax, 0xffffffff
170a      404611    0         405080    ca        jmp 0x40449a
170c      404616    0         407a03    ca        mov edi, 0x406330
170e      40461b    0         407a08    ca        call 0x4023d0
1710      404620    0         406efb    ca        mov eax, 0xffffffff
1712      404625    0         406f00    ca        jmp 0x40449a
1714      40462a    0         4079e1    ca        xor eax, eax
1716      40462c    0         4079e3    ca        mov edi, 0x4063a8
1718      404631    0         4079e8    ca        call 0x4023d0
171a      404636    0         406f05    ca        mov eax, 0xffffffff
171c      40463b    0         406f0a    ca        jmp 0x40449a
171e      404640    0         4031ff    ca        mov edi, 0x406380
1720      404645    0         403204    ca        call 0x4023d0
1722      40464a    0         406f0f    ca        mov eax, 0xffffffff
1724      40464f    0         406f14    ca        jmp 0x40449a
1726      404654    0         403142    ca        mov edi, 0x406358
1728      404659    0         403147    ca        call 0x4023d0
172a      40465e    0         402438    ca        mov eax, 0xffffffff
172c      404663    0         40243d    ca        jmp 0x40449a
1730      0         0         40750b    cb        xor dword [rsp], 0x15d2eb7f
1732      404676    0         407518    cb        push r14
1734      404678    0         40751a    cb        push r13
1736      40467a    0         40751c    cb        push r12
1738      40467c    0         40751e    cb        push rbp
173a      40467d    0         40751f    cb        mov rbp, rdi
173c      404680    0         407522    cb        push rbx
173e      404681    0         407523    cb        test edx, edx
1740      404683    0         407525    cb        lea rdi, [rdi + 0x3078]
1742      40468a    0         40752c    cb        je 0x4047f8
1744      0         0         407532    cb        call qword [6 + 0x200590]
1746      404696    0         405085    cb        test rax, rax
1748      404699    0         405088    cb        je 0x404803
174a      40469f    0         40508e    cb        mov rsi, rax
174c      4046a2    0         405091    cb        mov edi, 0x4061f8
174e      0         0         405096    cb        call qword [6 + 0x202a0c]
1750      4046ad    0         40509c    cb        mov edi, 0x406201
1752      0         0         4050a1    cb        call qword [6 + 0x202a61]
1754      4046b8    0         4050a7    cb        mov rdi, rax
1756      0         0         4050aa    cb        call qword [6 + 0x202a38]
1758      4046c1    0         4050b0    cb        mov esi, 0x406209
175a      4046c6    0         4050b5    cb        mov rdi, rax
175c      0         0         4050b8    cb        call qword [6 + 0x202a7a]
175e      4046cf    0         4050be    cb        mov rbx, qword [rbp + 0x10]
192e      4049fc    0         4024f0    d1        xor dword [rsp], 0x15d2eb7f
1760      4046d3    0         4050c2    cb        cmp rbx, qword [rbp + 0x18]
1762      4046d7    0         4050c6    cb        mov r13, rax
1764      4046da    0         4050c9    cb        jb 0x404700
1766      4046dc    0         4050cf    cb        jmp 0x4047c8
176a      4046e8    0         407a45    cb        mov rsi, rbx
176c      4046eb    0         407a48    cb        mov rdi, rbp
176e      4046ee    0         407a4b    cb        call 0x401ca0
1770      4046f3    0         406f19    cb        cmp qword [rbp + 0x18], rax
1772      4046f7    0         406f1d    cb        mov rbx, rax
1774      4046fa    0         406f20    cb        jbe 0x4047c8
1776      404700    0         406f26    cb        movzx edx, byte [rbx + 0x11]
1778      404704    0         406f2a    cb        and edx, 0xffffffdf
177a      404707    0         406f2d    cb        cmp dl, 0x4d
177c      40470a    0         406f30    cb        jne 0x4046e8
177e      40470c    0         406f36    cb        mov rsi, rbx
1780      40470f    0         406f39    cb        mov rdi, rbp
1782      404712    0         406f3c    cb        call 0x401cd0
1784      404717    0         406f41    cb        mov r12, rax
1786      0         0         406f44    cb        mov eax, dword [6 + 0x210e16]
1788      404720    0         406f4a    cb        mov ecx, dword [rbx + 0xc]
178a      404723    0         406f4d    cb        test eax, eax
178c      404725    0         406f4f    cb        bswap ecx
178e      404727    0         406f51    cb        jne 0x4047d8
1790      0         0         406f57    cb        cmp dword [7 + 0x200afe], 0x24
1792      404734    0         406f5e    cb        jle 0x404790
1794      404736    0         406f64    cb        sub ecx, 0x10
1796      404739    0         406f67    cb        lea rdx, [r12 + 0x10]
1798      40473e    0         406f6c    cb        mov esi, 0x406212
179a      404743    0         406f71    cb        mov rdi, r13
179c      404746    0         406f74    cb        xor eax, eax
179e      0         0         406f76    cb        call qword [6 + 0x200b64]
17a0      40474e    0         406f7c    cb        test rax, rax
17a2      404751    0         406f7f    cb        lea r14, [rbx + 0x12]
17a4      404755    0         406f83    cb        je 0x4047b1
17a6      404757    0         406f89    cb        mov rsi, rax
17a8      40475a    0         406f8c    cb        mov rdi, r14
17aa      0         0         406f8f    cb        call qword [6 + 0x200b7b]
17ac      404763    0         406f95    cb        test rax, rax
17ae      404766    0         406f98    cb        je 0x4047b1
17b0      0         0         406f9e    cb        call qword [6 + 0x200b84]
17b2      40476e    0         406fa4    cb        test rax, rax
17b4      404771    0         406fa7    cb        je 0x40477f
17b6      0         0         406fad    cb        call qword [6 + 0x200b6d]
17b8      0         0         406fb3    cb        call qword [6 + 0x200b77]
17ba      40477f    0         406fb9    cb        mov rdi, r12
17bc      404782    0         406fbc    cb        call 0x401610
17be      404787    0         406fc1    cb        jmp 0x4046e8
17c2      404790    0         407a24    cb        sub ecx, 0xc
17c4      404793    0         407a27    cb        xor eax, eax
17c6      404795    0         407a29    cb        lea rdx, [r12 + 0xc]
17c8      40479a    0         407a2e    cb        mov esi, 0x406212
17ca      40479f    0         407a33    cb        mov rdi, r13
17cc      4047a2    0         407a36    cb        lea r14, [rbx + 0x12]
17ce      0         0         407a3a    cb        call qword [6 + 0x2000a0]
17d0      4047ac    0         402442    cb        test rax, rax
17d2      4047af    0         402445    cb        jne 0x404757
17d4      4047b1    0         40244b    cb        mov rsi, r14
17d6      4047b4    0         40244e    cb        mov edi, 0x406215
17d8      4047b9    0         402453    cb        xor eax, eax
17da      4047bb    0         402455    cb        call 0x4023d0
17dc      4047c0    0         40245a    cb        jmp 0x404768
17e0      4047c8    0         407a12    cb        xor eax, eax
17e2      4047ca    0         407a14    cb        pop rbx
17e4      4047cb    0         407a15    cb        pop rbp
17e6      4047cc    0         407a16    cb        pop r12
17e8      4047ce    0         407a18    cb        pop r13
17ea      4047d0    0         407a1a    cb        pop r14
17ec      4047d2    0         407a1c    cb        xor dword [rsp], 0x15d2eb7f
17f0      4047d8    0         40321d    cb        sub ecx, 8
17f2      4047db    0         403220    cb        lea rdx, [r12 + 8]
17f4      4047e0    0         403225    cb        mov esi, 0x40620f
17fa      0         0         40322f    cb        call qword [6 + 0x2048ab]
17fc      4047f0    0         4050d4    cb        jmp 0x40474e
1800      0         0         403486    cb        call qword [6 + 0x2045ec]
1802      4047fe    0         40245f    cb        jmp 0x404696
1804      404803    0         40320e    cb        mov edi, 0x4063f8
1806      404808    0         403213    cb        call 0x4023d0
1808      40480d    0         402464    cb        mov eax, 0xffffffff
180a      404812    0         402469    cb        jmp 0x4047ca
180e      404820    0         403249    cc        xor dword [rsp], 0x15d2eb7f
1810      404821    0         403251    cc        push rbx
1812      404822    0         403252    cc        sub rsp, 8
1814      404826    0         403256    cc        mov ebx, dword [rsi + 4]
1816      0         0         403259    cc        mov eax, dword [6 + 0x214b01]
1818      40482f    0         40325f    cc        bswap ebx
181a      404831    0         403261    cc        add ebx, dword [rdi + 8]
181c      404834    0         403264    cc        test eax, eax
181e      404836    0         403266    cc        je 0x404880
1820      404838    0         40326c    cc        lea rsi, [rdi + 0x78]
1822      40483c    0         403270    cc        mov edx, ebx
1824      40483e    0         403272    cc        mov edi, 0x406226
1826      404843    0         403277    cc        xor eax, eax
1828      0         0         403279    cc        call qword [6 + 0x204809]
182a      40484b    0         4050d9    cc        mov rbx, rax
182c      40484e    0         4050dc    cc        mov edi, 0x406232
182e      0         0         4050e1    cc        call qword [6 + 0x2029c9]
1830      404859    0         4050e7    cc        test rax, rax
1832      40485c    0         4050ea    cc        je 0x4048c3
1834      40485e    0         4050f0    cc        mov rsi, rbx
1836      404861    0         4050f3    cc        mov rdi, rax
1838      0         0         4050f6    cc        call qword [6 + 0x202a04]
183a      40486a    0         4050fc    cc        mov ebx, eax
183c      40486c    0         4050fe    cc        xor eax, eax
183e      40486e    0         405100    cc        test ebx, ebx
1840      404870    0         405102    cc        jne 0x4048b0
1842      404872    0         405108    cc        add rsp, 8
1844      404876    0         40510c    cc        pop rbx
1846      404877    0         40510d    cc        pop rbp
1848      404878    0         40510e    cc        xor dword [rsp], 0x15d2eb7f
184c      404880    0         403634    cc        add rdi, 0x78
184e      0         0         403638    cc        call qword [6 + 0x20443a]
1850      40488a    0         405116    cc        mov rbp, rax
1852      40488d    0         405119    cc        mov edx, ebx
1854      40488f    0         40511b    cc        mov rsi, rax
1856      404892    0         40511e    cc        mov edi, 0x40622c
1858      404897    0         405123    cc        xor eax, eax
185a      0         0         405125    cc        call qword [6 + 0x202955]
185c      40489f    0         40512b    cc        mov rdi, rbp
185e      4048a2    0         40512e    cc        mov rbx, rax
1860      0         0         405131    cc        call qword [6 + 0x202a41]
1862      4048ab    0         405137    cc        jmp 0x40484e
1866      4048b0    0         407a55    cc        mov edi, 0x406237
1868      4048b5    0         407a5a    cc        call 0x4023d0
186a      4048ba    0         40513c    cc        add rsp, 8
186c      4048be    0         405140    cc        mov eax, ebx
186e      4048c0    0         405142    cc        pop rbx
1870      4048c1    0         405143    cc        pop rbp
1872      4048c2    0         405144    cc        xor dword [rsp], 0x15d2eb7f
1874      4048c3    0         40323a    cc        mov edi, 0x406420
1876      4048c8    0         40323f    cc        call 0x4023d0
1878      4048cd    0         40246e    cc        mov rdi, rbx
187a      0         0         402471    cc        call qword [6 + 0x205701]
187c      4048d6    0         402477    cc        mov eax, 0xffffffff
187e      4048db    0         40247c    cc        jmp 0x404872
1882      4048e0    0         402dc6    cd        xor dword [rsp], 0x15d2eb7f
1884      4048e1    0         402dce    cd        push rbx
1886      4048e2    0         402dcf    cd        mov rbp, rdi
1888      4048e5    0         402dd2    cd        sub rsp, 8
188a      4048e9    0         402dd6    cd        mov rbx, qword [rdi + 0x10]
188c      4048ed    0         402dda    cd        cmp rbx, qword [rdi + 0x18]
188e      4048f1    0         402dde    cd        jb 0x40490c
1890      4048f3    0         402de4    cd        jmp 0x404920
1894      4048f8    0         407a74    cd        mov rsi, rbx
1896      4048fb    0         407a77    cd        mov rdi, rbp
1898      4048fe    0         407a7a    cd        call 0x401ca0
189a      404903    0         40514c    cd        cmp qword [rbp + 0x18], rax
189c      404907    0         405150    cd        mov rbx, rax
189e      40490a    0         405153    cd        jbe 0x404920
18a0      40490c    0         405159    cd        cmp byte [rbx + 0x11], 0x7a
18a2      404910    0         40515d    cd        jne 0x4048f8
18a4      404912    0         405163    cd        mov rsi, rbx
18a6      404915    0         405166    cd        mov rdi, rbp
18a8      404918    0         405169    cd        call 0x404820
18aa      40491d    0         40516e    cd        jmp 0x4048f8
18ae      404920    0         407a64    cd        add rsp, 8
18b0      404924    0         407a68    cd        xor eax, eax
18b2      404926    0         407a6a    cd        pop rbx
18b4      404927    0         407a6b    cd        pop rbp
18b6      404928    0         407a6c    cd        xor dword [rsp], 0x15d2eb7f
18ba      404930    0         403552    ce        xor dword [rsp], 0x15d2eb7f
18bc      404937    0         403560    ce        je 0x404940
18be      404939    0         403566    ce        xor dword [rsp], 0x15d2eb7f
18c2      0         0         407cfe    ce        mov rax, qword [7 + 0x1ffe6b]
18c4      404947    0         407d05    ce        xor dword [rsp], 0x15d2eb7f
18c8      404950    404950    404950    cf        ret 
18cc      404960    404960    40299e    d0        xor dword [rsp], 0x15d2eb7f
18ce      0         0         4029a7    d0        mov edi, dword [6 + 0x21539b]
18d0      404968    0         4029ad    d0        xor dword [rsp], 0x15d2eb7f
18d4      404970    0         407a8b    d1        xor dword [rsp], 0x15d2eb7f
18d6      404972    0         407a94    d1        push r14
18d8      404974    0         407a96    d1        mov r15, rsi
18da      404977    0         407a99    d1        push r13
18dc      404979    0         407a9b    d1        push r12
18de      40497b    0         407a9d    d1        mov r14, rdi
18e0      40497e    0         407aa0    d1        push rbp
18e2      40497f    0         407aa1    d1        push rbx
18e4      404980    0         407aa2    d1        mov r13, rdx
18e6      404983    0         407aa5    d1        sub rsp, 0x18
18e8      404987    0         407aa9    d1        test rdi, rdi
18ea      40498a    0         407aac    d1        je 0x404a48
18ec      404990    0         407ab2    d1        call 0x401730
18ee      404995    0         402481    d1        test r15, r15
18f0      404998    0         402484    d1        mov ebp, eax
18f2      40499a    0         402486    d1        je 0x404a58
18f4      4049a0    0         40248c    d1        mov rdi, r15
18f6      4049a3    0         40248f    d1        call 0x401730
18f8      4049a8    0         402494    d1        test r13, r13
18fa      4049ab    0         402497    d1        mov dword [rsp + 0xc], eax
18fc      4049af    0         40249b    d1        je 0x404a70
18fe      4049b5    0         4024a1    d1        mov rdi, r13
1900      4049b8    0         4024a4    d1        call 0x401730
1902      4049bd    0         4024a9    d1        mov r12d, eax
1904      4049c0    0         4024ac    d1        mov eax, dword [rsp + 0xc]
1906      4049c4    0         4024b0    d1        add eax, ebp
1908      4049c6    0         4024b2    d1        lea edi, [r12 + rax + 1]
190a      4049cb    0         4024b7    d1        movsxd rdi, edi
190c      4049ce    0         4024ba    d1        call 0x4018e0
190e      4049d3    0         4024bf    d1        test rax, rax
1910      4049d6    0         4024c2    d1        mov rbx, rax
1912      4049d9    0         4024c5    d1        je 0x404a80
1914      4049df    0         4024cb    d1        test ebp, ebp
1916      4049e1    0         4024cd    d1        mov byte [rax], 0
1918      4049e4    0         4024d0    d1        jne 0x404a00
191a      4049e6    0         4024d6    d1        test r12d, r12d
191c      4049e9    0         4024d9    d1        mov rax, rbx
191e      4049ec    0         4024dc    d1        jne 0x404a26
1920      4049ee    0         4024e2    d1        add rsp, 0x18
1922      4049f2    0         4024e6    d1        pop rbx
1924      4049f3    0         4024e7    d1        pop rbp
1926      4049f4    0         4024e8    d1        pop r12
1928      4049f6    0         4024ea    d1        pop r13
192a      4049f8    0         4024ec    d1        pop r14
192c      4049fa    0         4024ee    d1        pop r15
1932      404a00    0         4032a4    d1        mov rdi, rax
1934      404a03    0         4032a7    d1        mov rsi, r14
1936      404a06    0         4032aa    d1        call 0x401710
1938      404a0b    0         4024f8    d1        mov rdi, rax
193a      404a0e    0         4024fb    d1        mov eax, dword [rsp + 0xc]
193c      404a12    0         4024ff    d1        test eax, eax
193e      404a14    0         402501    d1        je 0x4049e6
1940      404a16    0         402507    d1        test r12d, r12d
1942      404a19    0         40250a    d1        mov rax, rbx
1944      404a1c    0         40250d    d1        je 0x4049ee
1946      404a1e    0         402513    d1        mov rsi, r15
1948      404a21    0         402516    d1        call 0x401660
194a      404a26    0         40251b    d1        mov rsi, r13
194c      404a29    0         40251e    d1        mov rdi, rbx
194e      404a2c    0         402521    d1        call 0x4019f0
1950      404a31    0         402526    d1        add rsp, 0x18
1952      404a35    0         40252a    d1        mov rax, rbx
1954      404a38    0         40252d    d1        pop rbx
1956      404a39    0         40252e    d1        pop rbp
1958      404a3a    0         40252f    d1        pop r12
195a      404a3c    0         402531    d1        pop r13
195c      404a3e    0         402533    d1        pop r14
195e      404a40    0         402535    d1        pop r15
1960      404a42    0         402537    d1        xor dword [rsp], 0x15d2eb7f
1964      404a48    0         407c5a    d1        xor ebp, ebp
1966      404a4a    0         407c5c    d1        test r15, r15
1968      404a4d    0         407c5f    d1        jne 0x4049a0
196a      404a53    0         407c65    d1        nop dword [rax + rax]
196c      404a58    0         403284    d1        test r13, r13
196e      404a5b    0         403287    d1        mov dword [rsp + 0xc], 0
1970      404a63    0         40328f    d1        jne 0x4049b5
1972      404a69    0         403295    d1        nop dword [rax]
1974      404a70    0         40329c    d1        xor r12d, r12d
1976      404a73    0         40329f    d1        jmp 0x4049c0
197a      404a80    0         407a84    d1        xor eax, eax
197c      404a82    0         407a86    d1        jmp 0x4049ee
1980      404a90    0         4075b6    d2        xor dword [rsp], 0x15d2eb7f
1982      404a94    0         4075c1    d2        call 0x4015e0
1984      404a99    0         406fc6    d2        test rax, rax
1986      404a9c    0         406fc9    d2        je 0x404ab0
1988      404a9e    0         406fcf    d2        cmp byte [rax], 0
198a      404aa1    0         406fd2    d2        je 0x404ab0
198c      404aa3    0         406fd8    d2        mov rdi, rax
198e      404aa6    0         406fdb    d2        add rsp, 8
1990      404aaa    0         406fdf    d2        xor dword [rsp], 0x15d2eb7f
1994      404ab0    0         4032b4    d2        xor eax, eax
1996      404ab2    0         4032b6    d2        add rsp, 8
1998      404ab6    0         4032ba    d2        xor dword [rsp], 0x15d2eb7f
199c      404ac0    0         403582    d3        xor dword [rsp], 0x15d2eb7f
199e      404ac1    0         40358a    d3        push rbx
19a0      404ac2    0         40358b    d3        mov rbp, rdi
19a2      404ac5    0         40358e    d3        mov edi, 0x406448
19a4      404aca    0         403593    d3        sub rsp, 8
19a6      404ace    0         403597    d3        call 0x404a90
19a8      404ad3    0         406feb    d3        test rax, rax
19aa      404ad6    0         406fee    d3        mov rbx, rax
19ac      404ad9    0         406ff1    d3        je 0x404aed
19ae      404adb    0         406ff7    d3        mov edx, 1
19b0      404ae0    0         406ffc    d3        mov rsi, rax
19b2      404ae3    0         406fff    d3        mov edi, 0x406458
19b4      404ae8    0         407004    d3        call 0x4016d0
19b6      404aed    0         407009    d3        mov rdx, rbx
19b8      404af0    0         40700c    d3        mov rdi, rbp
19ba      404af3    0         40700f    d3        mov esi, 0x4055d9
19bc      404af8    0         407014    d3        call 0x404970
19be      404afd    0         407019    d3        mov edx, 1
19c0      404b02    0         40701e    d3        mov rbx, rax
19c2      404b05    0         407021    d3        mov rsi, rax
19c4      404b08    0         407024    d3        mov edi, 0x406448
19c6      404b0d    0         407029    d3        call 0x4016d0
19c8      404b12    0         40702e    d3        mov rdi, rbx
19ca      404b15    0         407031    d3        mov ebp, eax
19cc      404b17    0         407033    d3        call 0x401610
19ce      404b1c    0         407038    d3        add rsp, 8
19d0      404b20    0         40703c    d3        mov eax, ebp
19d2      404b22    0         40703e    d3        pop rbx
19d4      404b23    0         40703f    d3        pop rbp
19d6      404b24    0         407040    d3        xor dword [rsp], 0x15d2eb7f
19da      404b30    0         402e30    d4        mov edx, 1
19dc      404b35    0         402e35    d4        jmp 0x4016d0
19e0      404b40    0         4075cb    d5        jmp 0x4019d0
19e4      404b50    0         407ac2    d6        xor dword [rsp], 0x15d2eb7f
19e6      404b51    0         407aca    d6        mov rbx, rdi
19e8      404b54    0         407acd    d6        call 0x401730
19ea      404b59    0         405173    d6        cmp byte [rbx + rax - 1], 0x2f
19ec      404b5e    0         405178    d6        je 0x404b71
19ee      404b60    0         40517e    d6        mov ecx, 0x2f
19f0      404b65    0         405183    d6        mov rdi, rbx
19f2      404b68    0         405186    d6        mov word [rbx + rax], cx
19f4      404b6c    0         40518a    d6        call 0x401730
19f6      404b71    0         40518f    d6        add rax, rbx
19f8      404b74    0         405192    d6        mov rdx, 0x5858585849454d5f
19fa      404b7e    0         40519c    d6        mov rdi, rbx
19fc      404b81    0         40519f    d6        mov qword [rax], rdx
19fe      404b84    0         4051a2    d6        mov edx, 0x5858
1a00      404b89    0         4051a7    d6        mov byte [rax + 0xa], 0
1a02      404b8d    0         4051ab    d6        mov word [rax + 8], dx
1a04      404b91    0         4051af    d6        call 0x401950
1a06      404b96    0         4051b4    d6        test rax, rax
1a08      404b99    0         4051b7    d6        setne al
1a0a      404b9c    0         4051ba    d6        movzx eax, al
1a0c      404b9f    0         4051bd    d6        pop rbx
1a0e      404ba0    0         4051be    d6        xor dword [rsp], 0x15d2eb7f
1a12      404bb0    0         407255    d7        xor dword [rsp], 0x15d2eb7f
1a14      404bb2    0         40725e    d7        cmp dword [rdi + 0x4078], 1
1a16      404bb9    0         407265    d7        je 0x404c0e
1a18      404bbb    0         40726b    d7        push r12
1a1a      404bbd    0         40726d    d7        push rbp
1a1c      404bbe    0         40726e    d7        mov esi, 0x406474
1a1e      404bc3    0         407273    d7        push rbx
1a20      404bc4    0         407274    d7        mov r12, rdi
1a22      404bc7    0         407277    d7        lea rbx, [r12 + 0x2078]
1a24      404bcf    0         40727f    d7        call 0x402260
1a26      404bd4    0         40253f    d7        test rax, rax
1a28      404bd7    0         402542    d7        je 0x404c10
1a2a      404bd9    0         402548    d7        mov edx, 0x1000
1a2c      404bde    0         40254d    d7        mov rsi, rax
1a2e      404be1    0         402550    d7        mov rdi, rbx
1a30      404be4    0         402553    d7        call 0x401940
1a32      404be9    0         402558    d7        mov rdi, rbx
1a34      404bec    0         40255b    d7        call 0x404b50
1a36      404bf1    0         402560    d7        test eax, eax
1a38      404bf3    0         402562    d7        jne 0x404c90
1a3a      404bf9    0         402568    d7        xor eax, eax
1a3c      404bfb    0         40256a    d7        mov edi, 0x4064d8
1a3e      404c00    0         40256f    d7        call 0x4023d0
1a40      404c05    0         402574    d7        mov eax, 0xffffffff
1a42      404c0a    0         402579    d7        pop rbx
1a44      404c0b    0         40257a    d7        pop rbp
1a46      404c0c    0         40257b    d7        pop r12
1a48      404c0e    0         40257d    d7        xor dword [rsp], 0x15d2eb7f
1a4a      404c10    0         4032c8    d7        mov ebp, 0x406580
1a4c      404c15    0         4032cd    d7        mov edi, 0x40646d
1a4e      404c1a    0         4032d2    d7        nop word [rax + rax]
1a50      404c20    0         4032d8    d7        call 0x404a90
1a52      404c25    0         407048    d7        test rax, rax
1a54      404c28    0         40704b    d7        je 0x404c46
1a56      404c2a    0         407051    d7        mov edx, 0x1000
1a58      404c2f    0         407056    d7        mov rsi, rax
1a5a      404c32    0         407059    d7        mov rdi, rbx
1a5c      404c35    0         40705c    d7        call 0x401940
1a5e      404c3a    0         407061    d7        mov rdi, rbx
1a60      404c3d    0         407064    d7        call 0x404b50
1a62      404c42    0         407069    d7        test eax, eax
1a64      404c44    0         40706b    d7        jne 0x404c90
1a66      404c46    0         407071    d7        add rbp, 8
1a68      404c4a    0         407075    d7        mov rdi, qword [rbp]
1a6a      404c4e    0         407079    d7        test rdi, rdi
1a6c      404c51    0         40707c    d7        jne 0x404c20
1a6e      404c53    0         407082    d7        mov ebp, 0x406560
1a70      404c58    0         407087    d7        mov esi, 0x4064bb
1a72      404c5d    0         40708c    d7        jmp 0x404c6d
1a76      404c60    0         407ad7    d7        add rbp, 8
1a78      404c64    0         407adb    d7        mov rsi, qword [rbp]
1a7a      404c68    0         407adf    d7        test rsi, rsi
1a7c      404c6b    0         407ae2    d7        je 0x404bf9
1a7e      404c6d    0         407ae8    d7        mov edx, 0x1000
1a80      404c72    0         407aed    d7        mov rdi, rbx
1a82      404c75    0         407af0    d7        call 0x401940
1a84      404c7a    0         4051c6    d7        mov rdi, rbx
1a86      404c7d    0         4051c9    d7        call 0x404b50
1a88      404c82    0         4051ce    d7        test eax, eax
1a8a      404c84    0         4051d0    d7        je 0x404c60
1a8c      404c86    0         4051d6    d7        nop word cs:[rax + rax]
1a8e      404c90    0         4051e0    d7        mov dword [r12 + 0x4078], 1
1a90      404c9c    0         4051ec    d7        xor eax, eax
1a92      404c9e    0         4051ee    d7        jmp 0x404c0a
1a96      404cb0    0         4035a1    d8        xor dword [rsp], 0x15d2eb7f
1a98      404cb2    0         4035aa    d8        push r12
1a9a      404cb4    0         4035ac    d8        mov edx, 0x1000
1a9c      404cb9    0         4035b1    d8        push rbp
1a9e      404cba    0         4035b2    d8        push rbx
1aa0      404cbb    0         4035b3    d8        mov rsi, rdi
1aa2      404cbe    0         4035b6    d8        mov r13, rdi
1aa4      404cc1    0         4035b9    d8        sub rsp, 0x10a8
1aa6      404cc8    0         4035c0    d8        lea rbp, [rsp + 0x90]
1aa8      404cd0    0         4035c8    d8        mov rdi, rbp
1aaa      404cd3    0         4035cb    d8        call 0x401640
1aac      404cd8    0         4051f3    d8        mov rdx, rbp
1aae      404cdb    0         4051f6    d8        mov ecx, dword [rdx]
1ab0      404cdd    0         4051f8    d8        add rdx, 4
1ab2      404ce1    0         4051fc    d8        lea eax, [rcx - 0x1010101]
1ab4      404ce7    0         405202    d8        not ecx
1ab6      404ce9    0         405204    d8        and eax, ecx
1ab8      404ceb    0         405206    d8        and eax, 0x80808080
1aba      404cf0    0         40520b    d8        je 0x404cdb
1abc      404cf2    0         405211    d8        mov ecx, eax
1abe      404cf4    0         405213    d8        shr ecx, 0x10
1ac0      404cf7    0         405216    d8        test eax, 0x8080
1ac2      404cfc    0         40521b    d8        cmove eax, ecx
1ac4      404cff    0         40521e    d8        lea rcx, [rdx + 2]
1ac6      404d03    0         405222    d8        cmove rdx, rcx
1ac8      404d07    0         405226    d8        add al, al
1aca      404d09    0         405228    d8        sbb rdx, 3
1acc      404d0d    0         40522c    d8        sub rdx, rbp
1ace      404d10    0         40522f    d8        lea eax, [rdx - 1]
1ad0      404d13    0         405232    d8        mov r12d, edx
1ad2      404d16    0         405235    d8        cdqe 
1ad4      404d18    0         405237    d8        cmp byte [rsp + rax + 0x90], 0x2f
1ad6      404d20    0         40523f    d8        je 0x404d30
1ad8      404d22    0         405245    d8        mov eax, 0x2f
1ada      404d27    0         40524a    d8        lea r12d, [rdx + 1]
1adc      404d2b    0         40524e    d8        mov word [rbp + rdx], ax
1ade      404d30    0         405253    d8        mov rdi, r13
1ae0      404d33    0         405256    d8        movsxd r12, r12d
1ae2      404d36    0         405259    d8        call 0x401700
1ae4      404d3b    0         40525e    d8        mov rdi, rax
1ae6      404d3e    0         405261    d8        mov rbx, rax
1ae8      404d41    0         405264    d8        call 0x4018c0
1aea      404d46    0         405269    d8        test rax, rax
1aec      404d49    0         40526c    d8        mov rdx, rax
1aee      404d4c    0         40526f    d8        jne 0x404db0
1af0      404d4e    0         405275    d8        jmp 0x404de0
1af4      404d58    0         407c6f    d8        lea rsi, [rdx + 0x13]
1af6      404d5c    0         407c73    d8        mov rdi, rbp
1af8      404d5f    0         407c76    d8        mov edx, 0x1001
1afa      404d64    0         407c7b    d8        mov byte [rsp + r12 + 0x90], 0
1afc      404d6d    0         407c84    d8        call 0x4015d0
1afe      404d72    0         402586    d8        mov rdx, rsp
1b00      404d75    0         402589    d8        mov rsi, rbp
1b02      404d78    0         40258c    d8        mov edi, 1
1b04      404d7d    0         402591    d8        call 0x4018b0
1b06      404d82    0         402596    d8        test eax, eax
1b08      404d84    0         402598    d8        jne 0x404da0
1b0a      404d86    0         40259e    d8        mov eax, dword [rsp + 0x18]
1b0c      404d8a    0         4025a2    d8        mov rdi, rbp
1b0e      404d8d    0         4025a5    d8        and eax, 0xf000
1b10      404d92    0         4025aa    d8        cmp eax, 0x4000
1b12      404d97    0         4025af    d8        je 0x404e00
1b14      404d99    0         4025b5    d8        call 0x401630
1b16      404d9e    0         4025ba    d8        nop 
1b18      404da0    0         4025bc    d8        mov rdi, rbx
1b1a      404da3    0         4025bf    d8        call 0x4018c0
1b1c      404da8    0         4025c4    d8        test rax, rax
1b1e      404dab    0         4025c7    d8        mov rdx, rax
1b20      404dae    0         4025ca    d8        je 0x404de0
1b22      404db0    0         4025d0    d8        cmp byte [rdx + 0x13], 0x2e
1b24      404db4    0         4025d4    d8        jne 0x404d58
1b26      404db6    0         4025da    d8        movzx eax, byte [rdx + 0x14]
1b28      404dba    0         4025de    d8        test al, al
1b2a      404dbc    0         4025e0    d8        je 0x404da0
1b2c      404dbe    0         4025e6    d8        cmp al, 0x2e
1b2e      404dc0    0         4025e8    d8        jne 0x404d58
1b30      404dc2    0         4025ee    d8        cmp byte [rdx + 0x15], 0
1b32      404dc6    0         4025f2    d8        jne 0x404d58
1b34      404dc8    0         4025f8    d8        mov rdi, rbx
1b36      404dcb    0         4025fb    d8        call 0x4018c0
1b38      404dd0    0         402600    d8        test rax, rax
1b3a      404dd3    0         402603    d8        mov rdx, rax
1b3c      404dd6    0         402606    d8        jne 0x404db0
1b3e      404dd8    0         40260c    d8        nop dword [rax + rax]
1b40      404de0    0         402614    d8        mov rdi, rbx
1b42      404de3    0         402617    d8        call 0x4017a0
1b44      404de8    0         40261c    d8        mov rdi, r13
1b46      404deb    0         40261f    d8        call 0x401720
1b48      404df0    0         402624    d8        add rsp, 0x10a8
1b4a      404df7    0         40262b    d8        pop rbx
1b4c      404df8    0         40262c    d8        pop rbp
1b4e      404df9    0         40262d    d8        pop r12
1b50      404dfb    0         40262f    d8        pop r13
1b52      404dfd    0         402631    d8        xor dword [rsp], 0x15d2eb7f
1b56      404e00    0         4032ee    d8        call 0x404cb0
1b58      404e05    0         402639    d8        jmp 0x404da0
1b6a      404e30    0         407289    da        xor dword [rsp], 0x15d2eb7f
1b6c      404e32    0         407292    da        push rbp
1b6e      404e33    0         407293    da        mov edx, 0x1000
1b70      404e38    0         407298    da        push rbx
1b72      404e39    0         407299    da        mov rbx, rsi
1b74      404e3c    0         40729c    da        mov rsi, rdi
1b76      404e3f    0         40729f    da        sub rsp, 0x2090
1b78      404e46    0         4072a6    da        lea r12, [rsp + 0x90]
1b7a      404e4e    0         4072ae    da        mov rdi, r12
1b7c      404e51    0         4072b1    da        call 0x401640
1b7e      404e56    0         40527a    da        lea rdi, [rsp + 0x1090]
1b80      404e5e    0         405282    da        mov edx, 0x1000
1b82      404e63    0         405287    da        mov rsi, rbx
1b84      404e66    0         40528a    da        call 0x401640
1b86      404e6b    0         40528f    da        cmp byte [rsp + 0x108f], 0
1b88      404e73    0         405297    da        jne 0x404f90
1b8a      404e79    0         40529d    da        cmp byte [rsp + 0x208f], 0
1b8c      404e81    0         4052a5    da        jne 0x404f90
1b8e      404e87    0         4052ab    da        mov rbx, r12
1b90      404e8a    0         4052ae    da        mov edx, dword [rbx]
1b92      404e8c    0         4052b0    da        add rbx, 4
1b94      404e90    0         4052b4    da        lea eax, [rdx - 0x1010101]
1b96      404e96    0         4052ba    da        not edx
1b98      404e98    0         4052bc    da        and eax, edx
1b9a      404e9a    0         4052be    da        and eax, 0x80808080
1b9c      404e9f    0         4052c3    da        je 0x404e8a
1b9e      404ea1    0         4052c9    da        mov edx, eax
1ba0      404ea3    0         4052cb    da        lea rdi, [rsp + 0x1090]
1ba2      404eab    0         4052d3    da        mov esi, 0x4055db
1ba4      404eb0    0         4052d8    da        shr edx, 0x10
1ba6      404eb3    0         4052db    da        test eax, 0x8080
1ba8      404eb8    0         4052e0    da        cmove eax, edx
1baa      404ebb    0         4052e3    da        lea rdx, [rbx + 2]
1bac      404ebf    0         4052e7    da        cmove rbx, rdx
1bae      404ec3    0         4052eb    da        add al, al
1bb0      404ec5    0         4052ed    da        sbb rbx, 3
1bb2      404ec9    0         4052f1    da        sub rbx, r12
1bb4      404ecc    0         4052f4    da        call 0x4019c0
1bb6      404ed1    0         4052f9    da        test rax, rax
1bb8      404ed4    0         4052fc    da        mov rbp, rax
1bba      404ed7    0         4052ff    da        je 0x404fa0
1bbc      404edd    0         405305    da        nop dword [rax]
1bbe      404ee0    0         405308    da        mov rdi, rbp
1bc0      404ee3    0         40530b    da        call 0x401730
1bc2      404ee8    0         405310    da        lea rbx, [rbx + rax + 1]
1bc4      404eed    0         405315    da        cmp rbx, 0xffe
1bc6      404ef4    0         40531c    da        ja 0x404f90
1bc8      404efa    0         405322    da        mov rcx, r12
1bca      404efd    0         405325    da        mov eax, dword [rcx]
1bcc      404eff    0         405327    da        add rcx, 4
1bce      404f03    0         40532b    da        lea edx, [rax - 0x1010101]
1bd0      404f09    0         405331    da        not eax
1bd2      404f0b    0         405333    da        and edx, eax
1bd4      404f0d    0         405335    da        and edx, 0x80808080
1bd6      404f13    0         40533b    da        je 0x404efd
1bd8      404f15    0         405341    da        mov eax, edx
1bda      404f17    0         405343    da        mov rsi, rbp
1bdc      404f1a    0         405346    da        shr eax, 0x10
1bde      404f1d    0         405349    da        test edx, 0x8080
1be0      404f23    0         40534f    da        cmove edx, eax
1be2      404f26    0         405352    da        lea rax, [rcx + 2]
1be4      404f2a    0         405356    da        cmove rcx, rax
1be6      404f2e    0         40535a    da        add dl, dl
1be8      404f30    0         40535c    da        mov eax, 0x2f
1bea      404f35    0         405361    da        sbb rcx, 3
1bec      404f39    0         405365    da        mov edx, 0x1000
1bee      404f3e    0         40536a    da        lea rdi, [rcx + 1]
1bf0      404f42    0         40536e    da        mov word [rcx], ax
1bf2      404f45    0         405371    da        call 0x401940
1bf4      404f4a    0         405376    da        xor edi, edi
1bf6      404f4c    0         405378    da        mov esi, 0x4055db
1bf8      404f51    0         40537d    da        call 0x4019c0
1bfa      404f56    0         405382    da        test rax, rax
1bfc      404f59    0         405385    da        mov rbp, rax
1bfe      404f5c    0         407d21    da        je 0x404fa0
1c00      404f5e    0         407d27    da        mov rdx, rsp
1c02      404f61    0         407d2a    da        mov rsi, r12
1c04      404f64    0         407d2d    da        mov edi, 1
1c06      404f69    0         407d32    da        call 0x4018b0
1c08      404f6e    0         407091    da        test eax, eax
1c0a      404f70    0         407093    da        jns 0x404ee0
1c0c      404f76    0         407099    da        mov esi, 0x1c0
1c0e      404f7b    0         40709e    da        mov rdi, r12
1c10      404f7e    0         4070a1    da        call 0x401680
1c12      404f83    0         4070a6    da        jmp 0x404ee0
1c16      404f90    0         4032fe    da        add rsp, 0x2090
1c18      404f97    0         403305    da        xor eax, eax
1c1a      404f99    0         403307    da        pop rbx
1c1c      404f9a    0         403308    da        pop rbp
1c1e      404f9b    0         403309    da        pop r12
1c20      404f9d    0         40330b    da        xor dword [rsp], 0x15d2eb7f
1c24      404fa0    0         407b00    da        mov rdx, rsp
1c26      404fa3    0         407b03    da        mov rsi, r12
1c28      404fa6    0         407b06    da        mov edi, 1
1c2a      404fab    0         407b0b    da        call 0x4018b0
1c2c      404fb0    0         40263e    da        test eax, eax
1c2e      404fb2    0         402640    da        je 0x404fcd
1c30      404fb4    0         402646    da        mov esi, 0x406487
1c32      404fb9    0         40264b    da        mov rdi, r12
1c34      404fbc    0         40264e    da        call 0x4019a0
1c36      404fc1    0         402653    da        add rsp, 0x2090
1c38      404fc8    0         40265a    da        pop rbx
1c3a      404fc9    0         40265b    da        pop rbp
1c3c      404fca    0         40265c    da        pop r12
1c3e      404fcc    0         40265e    da        xor dword [rsp], 0x15d2eb7f
1c40      404fcd    0         403319    da        mov rsi, r12
1c42      404fd0    0         40331c    da        mov edi, 0x406510
1c44      404fd5    0         403321    da        call 0x4023d0
1c46      404fda    0         4070ab    da        mov esi, 0x406487
1c48      404fdf    0         4070b0    da        mov rdi, r12
1c4a      404fe2    0         4070b3    da        call 0x4019a0
1c4c      404fe7    0         4070b8    da        jmp 0x404fc1
1c50      404ff0    0         402bfa    db        xor dword [rsp], 0x15d2eb7f
1c52      404ff2    0         402c03    db        push rbp
1c54      404ff3    0         402c04    db        mov r12, rdx
1c56      404ff6    0         402c07    db        push rbx
1c58      404ff7    0         402c08    db        mov rbp, rsi
1c5a      404ffa    0         402c0b    db        mov esi, 0x40542d
1c5c      404fff    0         402c10    db        sub rsp, 0x1000
1c5e      405006    0         402c17    db        call 0x4019a0
1c60      40500b    0         402666    db        mov rsi, r12
1c62      40500e    0         402669    db        mov rdi, rbp
1c64      405011    0         40266c    db        mov rbx, rax
1c66      405014    0         40266f    db        call 0x404e30
1c68      405019    0         402674    db        test rax, rax
1c6a      40501c    0         402677    db        mov r12, rax
1c6c      40501f    0         40267a    db        je 0x4050e8
1c6e      405025    0         402680    db        test rbx, rbx
1c70      405028    0         402683    db        je 0x4050e8
1c72      40502e    0         402689    db        nop 
1c74      405030    0         40268b    db        mov rdi, rbx
1c76      405033    0         40268e    db        call 0x401820
1c78      405038    0         402693    db        test eax, eax
1c7a      40503a    0         402695    db        jne 0x405110
1c7c      405040    0         40269b    db        mov rcx, rbx
1c7e      405043    0         40269e    db        mov edx, 1
1c80      405048    0         4026a3    db        mov esi, 0x1000
1c82      40504d    0         4026a8    db        mov rdi, rsp
1c84      405050    0         4026ab    db        call 0x4016a0
1c86      405055    0         4026b0    db        cmp rax, -1
1c88      405059    0         4026b4    db        mov rbp, rax
1c8a      40505c    0         4026b7    db        je 0x4050c8
1c8c      40505e    0         4026bd    db        mov rcx, r12
1c8e      405061    0         4026c0    db        mov edx, 1
1c90      405066    0         4026c5    db        mov esi, 0x1000
1c92      40506b    0         4026ca    db        mov rdi, rsp
1c94      40506e    0         4026cd    db        call 0x401a10
1c96      405073    0         4026d2    db        test eax, eax
1c98      405075    0         4026d4    db        jle 0x405083
1c9a      405077    0         4026da    db        mov rdi, r12
1c9c      40507a    0         4026dd    db        call 0x401690
1c9e      40507f    0         4026e2    db        test eax, eax
1ca0      405081    0         4026e4    db        je 0x405030
1ca2      405083    0         4026ea    db        mov rdi, r12
1ca4      405086    0         4026ed    db        mov ebp, 0xffffffff
1ca6      40508b    0         4026f2    db        call 0x401840
1ca8      405090    0         4026f7    db        mov rdi, r12
1caa      405093    0         4026fa    db        call 0x401890
1cac      405098    0         4026ff    db        mov esi, 0x1c0
1cae      40509d    0         402704    db        mov edi, eax
1cb0      40509f    0         402706    db        call 0x401970
1cb2      4050a4    0         40270b    db        mov rdi, rbx
1cb4      4050a7    0         40270e    db        call 0x4016f0
1cb6      4050ac    0         402713    db        mov rdi, r12
1cb8      4050af    0         402716    db        call 0x4016f0
1cba      4050b4    0         40271b    db        add rsp, 0x1000
1cbc      4050bb    0         402722    db        mov eax, ebp
1cbe      4050bd    0         402724    db        pop rbx
1cc0      4050be    0         402725    db        pop rbp
1cc2      4050bf    0         402726    db        pop r12
1cc4      4050c1    0         402728    db        xor dword [rsp], 0x15d2eb7f
1cc8      4050c8    0         403341    db        mov rdi, rbx
1cca      4050cb    0         403344    db        call 0x401690
1ccc      4050d0    0         402730    db        test eax, eax
1cce      4050d2    0         402732    db        je 0x405030
1cd0      4050d8    0         402738    db        mov rdi, rbx
1cd2      4050db    0         40273b    db        call 0x401840
1cd4      4050e0    0         402740    db        jmp 0x405090
1cd8      4050e8    0         40332b    db        test rbx, rbx
1cda      4050eb    0         40332e    db        je 0x4050f5
1cdc      4050ed    0         403334    db        mov rdi, rbx
1cde      4050f0    0         403337    db        call 0x4016f0
1ce0      4050f5    0         4070bd    db        test r12, r12
1ce2      4050f8    0         4070c0    db        mov ebp, 0xffffffff
1ce4      4050fd    0         4070c5    db        jne 0x4050ac
1ce6      4050ff    0         4070cb    db        add rsp, 0x1000
1ce8      405106    0         4070d2    db        mov eax, ebp
1cea      405108    0         4070d4    db        pop rbx
1cec      405109    0         4070d5    db        pop rbp
1cee      40510a    0         4070d6    db        pop r12
1cf0      40510c    0         4070d8    db        xor dword [rsp], 0x15d2eb7f
1cf4      405110    0         407b21    db        xor ebp, ebp
1cf6      405112    0         407b23    db        jmp 0x405090
1cfa      405120    0         407909    dc        mov esi, 0x102
1cfc      405125    0         40790e    dc        jmp 0x4018d0
1d00      405130    0         402e3a    dd        xor dword [rsp], 0x15d2eb7f
1d02      405137    0         402e48    dd        jne 0x405148
1d04      405139    0         402e4e    dd        add rdi, 0x1078
1d06      405140    0         402e55    dd        xor dword [rsp], 0x15d2eb7f
1d0a      405148    0         40356f    dd        add rdi, 0x2078
1d0c      40514f    0         403576    dd        xor dword [rsp], 0x15d2eb7f
1d10      405160    0         407c94    de        xor dword [rsp], 0x15d2eb7f
1d12      405164    0         407c9f    de        mov edi, 0x40648a
1d14      405169    0         407ca4    de        call 0x404a90
1d16      40516e    0         402745    de        mov rdx, rax
1d18      405171    0         402748    de        xor eax, eax
1d1a      405173    0         40274a    de        test rdx, rdx
1d1c      405176    0         40274d    de        je 0x4051b1
1d1e      405178    0         402753    de        call 0x4016e0
1d20      40517d    0         402758    de        mov edx, 1
1d22      405182    0         40275d    de        movsxd r9, eax
1d24      405185    0         402760    de        mov esi, 0x17
1d26      40518a    0         402765    de        mov rdi, rsp
1d28      40518d    0         402768    de        mov r8d, 0x406495
1d2a      405193    0         40276e    de        mov ecx, 0x17
1d2c      405198    0         402773    de        xor eax, eax
1d2e      40519a    0         402775    de        call 0x4015f0
1d30      40519f    0         40277a    de        mov edx, 1
1d32      4051a4    0         40277f    de        mov rsi, rsp
1d34      4051a7    0         402782    de        mov edi, 0x40648a
1d36      4051ac    0         402787    de        call 0x4016d0
1d38      4051b1    0         40278c    de        add rsp, 0x28
1d3a      4051b5    0         402790    de        xor dword [rsp], 0x15d2eb7f
1d3e      4051c0    0         407660    df        xor dword [rsp], 0x15d2eb7f
1d40      4051c2    0         407669    df        mov r15, rdi
1d42      4051c5    0         40766c    df        push r14
1d44      4051c7    0         40766e    df        lea edi, [rdx + 1]
1d46      4051ca    0         407671    df        push r13
1d48      4051cc    0         407673    df        push r12
1d4a      4051ce    0         407675    df        push rbp
1d4c      4051cf    0         407676    df        push rbx
1d4e      4051d0    0         407677    df        mov ebp, edx
1d50      4051d2    0         407679    df        mov r14, rsi
1d52      4051d5    0         40767c    df        movsxd rdi, edi
1d54      4051d8    0         40767f    df        mov esi, 8
1d56      4051dd    0         407684    df        sub rsp, 0x18
1d58      4051e1    0         407688    df        mov r13, rcx
1d5a      4051e4    0         40768b    df        mov dword [rsp + 0xc], 0
1d5c      4051ec    0         407693    df        call 0x4017e0
1d5e      4051f1    0         402798    df        test ebp, ebp
1d60      4051f3    0         40279a    df        mov r12, rax
1d62      0         0         40279d    df        mov qword [7 + 0x2155ac], rax
1d64      0         0         4027a4    df        mov dword [10 + 0x21559e], 0
1d66      405207    0         4027ae    df        jle 0x405238
1d68      405209    0         4027b4    df        sub ebp, 1
1d6a      40520c    0         4027b7    df        xor ebx, ebx
1d6c      40520e    0         4027b9    df        add rbp, 1
1d6e      405212    0         4027bd    df        nop word [rax + rax]
1d70      405218    0         4027c3    df        mov rdi, qword [r13 + rbx*8]
1d72      40521d    0         4027c8    df        lea eax, [rbx + 1]
1d74      0         0         4027cb    df        mov dword [6 + 0x21557b], eax
1d76      405226    0         4027d1    df        call 0x4017b0
1d78      40522b    0         4027d6    df        mov qword [r12 + rbx*8], rax
1d7a      40522f    0         4027da    df        add rbx, 1
1d7c      405233    0         4027de    df        cmp rbx, rbp
1d7e      405236    0         4027e1    df        jne 0x405218
1d80      405238    0         4027e7    df        call 0x401a50
1d82      40523d    0         4027ec    df        test eax, eax
1d84      40523f    0         4027ee    df        mov ebx, eax
1d86      405241    0         4027f0    df        js 0x405378
1d88      405247    0         4027f6    df        je 0x40532d
1d8a      40524d    0         4027fc    df        mov esi, 0x406499
1d8c      405252    0         402801    df        mov rdi, r14
1d8e      0         0         402804    df        mov dword [6 + 0x21553e], ebx
1d90      40525b    0         40280a    df        mov r12d, 0x404960
1d92      405261    0         402810    df        mov ebp, 1
1d94      405266    0         402815    df        call 0x402260
1d96      40526b    0         40281a    df        test rax, rax
1d98      40526e    0         40281d    df        mov eax, 0x404950
1d9a      405273    0         402822    df        cmovne r12, rax
1d9c      405277    0         402826    df        xor ebx, ebx
1d9e      405279    0         402828    df        jmp 0x405286
1da2      405280    0         403384    df        add ebx, 1
1da4      405283    0         403387    df        add ebp, 1
1da6      405286    0         40336c    df        cmp ebx, 0x11
1da8      405289    0         40336f    df        je 0x405280
1daa      40528b    0         403375    df        mov rsi, r12
1dac      40528e    0         403378    df        mov edi, ebx
1dae      405290    0         40337a    df        call 0x401800
1db0      405295    0         40282d    df        cmp ebp, 0x41
1db2      405298    0         402830    df        jne 0x405280
1db4      0         0         402836    df        mov edi, dword [6 + 0x21550c]
1db6      4052a0    0         40283c    df        lea rsi, [rsp + 0xc]
1db8      4052a5    0         402841    df        xor edx, edx
1dba      4052a7    0         402843    df        xor ebx, ebx
1dbc      4052a9    0         402845    df        call 0x401990
1dbe      4052ae    0         40284a    df        mov r13d, eax
1dc0      4052b1    0         40284d    df        nop dword [rax]
1dc2      4052b8    0         402854    df        xor esi, esi
1dc4      4052ba    0         402856    df        mov edi, ebx
1dc6      4052bc    0         402858    df        add ebx, 1
1dc8      4052bf    0         40285b    df        call 0x401800
1dca      4052c4    0         402860    df        cmp ebx, 0x41
1dcc      4052c7    0         402863    df        jne 0x4052b8
1dce      0         0         402869    df        mov r12d, dword [7 + 0x2154dc]
1dd0      0         0         402870    df        mov rbp, qword [7 + 0x2154d9]
1dd2      4052d7    0         402877    df        test r12d, r12d
1dd4      4052da    0         40287a    df        jle 0x4052f3
1dd6      4052dc    0         402880    df        xor ebx, ebx
1dd8      4052de    0         402882    df        nop 
1dda      4052e0    0         402884    df        mov rdi, qword [rbp + rbx*8]
1ddc      4052e5    0         402889    df        add rbx, 1
1dde      4052e9    0         40288d    df        call 0x401610
1de0      4052ee    0         402892    df        cmp r12d, ebx
1de2      4052f1    0         402895    df        jg 0x4052e0
1de4      4052f3    0         40289b    df        mov rdi, rbp
1de6      4052f6    0         40289e    df        call 0x401610
1de8      4052fb    0         4028a3    df        test r13d, r13d
1dea      4052fe    0         4028a6    df        js 0x40536c
1dec      405300    0         4028ac    df        mov eax, dword [rsp + 0xc]
1dee      405304    0         4028b0    df        mov edi, eax
1df0      405306    0         4028b2    df        and edi, 0x7f
1df2      405309    0         4028b5    df        je 0x405373
1df4      40530b    0         4028bb    df        lea eax, [rdi + 1]
1df6      40530e    0         4028be    df        mov ebx, 1
1df8      405313    0         4028c3    df        cmp al, 1
1dfa      405315    0         4028c5    df        jle 0x40531c
1dfc      405317    0         4028cb    df        call 0x401600
1dfe      40531c    0         4028d0    df        add rsp, 0x18
1e00      405320    0         4028d4    df        mov eax, ebx
1e02      405322    0         4028d6    df        pop rbx
1e04      405323    0         4028d7    df        pop rbp
1e06      405324    0         4028d8    df        pop r12
1e08      405326    0         4028da    df        pop r13
1e0a      405328    0         4028dc    df        pop r14
1e0c      40532a    0         4028de    df        pop r15
1e0e      40532c    0         4028e0    df        xor dword [rsp], 0x15d2eb7f
1e10      40532d    0         407b28    df        xor eax, eax
1e12      40532f    0         407b2a    df        call 0x405160
1e14      0         0         4028e8    df        mov rbp, qword [7 + 0x215461]
1e16      40533b    0         4028ef    df        mov rdi, r15
1e18      40533e    0         4028f2    df        mov rsi, rbp
1e1a      405341    0         4028f5    df        call 0x4019e0
1e1c      405346    0         4028fa    df        test eax, eax
1e1e      405348    0         4028fc    df        jns 0x40524d
1e20      0         0         402902    df        mov r12d, dword [7 + 0x215443]
1e22      405355    0         402909    df        mov r13d, 0xffffffff
1e24      40535b    0         40290f    df        test r12d, r12d
1e26      40535e    0         402912    df        jg 0x4052dc
1e28      405364    0         402918    df        mov rdi, rbp
1e2a      405367    0         40291b    df        call 0x401610
1e2c      40536c    0         402920    df        mov ebx, 1
1e2e      405371    0         402925    df        jmp 0x40531c
1e30      405373    0         40339b    df        movzx ebx, ah
1e32      405376    0         40339e    df        jmp 0x40531c
1e34      0         0         403360    df        mov rbp, qword [7 + 0x2149e9]
1e36      40537f    0         403367    df        jmp 0x40534e
1e3c      405390    405390    40710f    e0        xor dword [rsp], 0x15d2eb7f
1e3e      405392    0         407118    e0        mov r15d, edi
1e40      405395    0         40711b    e0        push r14
1e42      405397    0         40711d    e0        mov r14, rsi
1e44      40539a    0         407120    e0        push r13
1e46      40539c    0         407122    e0        mov r13, rdx
1e48      40539f    0         407125    e0        push r12
1e4a      0         0         407127    e0        lea r12, [7 + 0x200452]
1e4c      4053a8    0         40712e    e0        push rbp
1e4e      0         0         40712f    e0        lea rbp, [7 + 0x200452]
1e50      4053b0    0         407136    e0        push rbx
1e52      4053b1    0         407137    e0        sub rbp, r12
1e54      4053b4    0         40713a    e0        xor ebx, ebx
1e56      4053b6    0         40713c    e0        sar rbp, 3
1e58      4053ba    0         407140    e0        sub rsp, 8
1e5a      4053be    0         407144    e0        call 0x401598
1e5c      4053c3    0         40292a    e0        test rbp, rbp
1e5e      4053c6    0         40292d    e0        je 0x4053e6
1e60      4053c8    0         402933    e0        nop dword [rax + rax]
1e62      4053d0    0         40293b    e0        mov rdx, r13
1e64      4053d3    0         40293e    e0        mov rsi, r14
1e66      4053d6    0         402941    e0        mov edi, r15d
1e68      4053d9    0         402944    e0        call qword [r12 + rbx*8]
1e6a      4053dd    0         402948    e0        add rbx, 1
1e6c      4053e1    0         40294c    e0        cmp rbx, rbp
1e6e      4053e4    0         40294f    e0        jne 0x4053d0
1e70      4053e6    0         402955    e0        add rsp, 8
1e72      4053ea    0         402959    e0        pop rbx
1e74      4053eb    0         40295a    e0        pop rbp
1e76      4053ec    0         40295b    e0        pop r12
1e78      4053ee    0         40295d    e0        pop r13
1e7a      4053f0    0         40295f    e0        pop r14
1e7c      4053f2    0         402961    e0        pop r15
1e7e      4053f4    0         402963    e0        xor dword [rsp], 0x15d2eb7f
1e82      405400    405400    405400    e1        ret 
1e84      405404    405404    4029b9    e2        xor dword [rsp], 0x15d2eb7f
1e86      405408    0         4029c4    e2        add rsp, 8
1e88      40540c    0         4029c8    e2        xor dword [rsp], 0x15d2eb7f
2438      0         0         4034b0    9e        push r13
2439      0         0         4075d7    9f        push rbx
243e      0         0         404b2e    9f        ret 
243f      0         0         402e75    a3        test rdi, rdi
2440      0         0         401ce6    a4        ret 
2441      0         0         407b3b    a4        push r14
2442      0         0         40676e    a4        ret 
2443      0         0         404b4b    a3        jmp 0xfffffffffffff3c8
2444      0         0         4035dc    a3        ret 
2448      0         0         401734    a6        ret 
2449      0         0         407bd8    9a        ret 
244a      0         0         404a74    9a        ret 
244b      0         0         4071e8    a7        push rbx
244c      0         0         404bd1    a8        ret 
244d      0         0         407340    a9        push rbx
244e      0         0         404bb9    a7        ret 
244f      0         0         4033ce    a8        push rbx
2450      0         0         407cca    aa        push r14
2451      0         0         401d6d    ab        ret 
2452      0         0         404bf3    a9        ret 
2453      0         0         4034dc    ac        push r12
2454      0         0         407c10    ab        ret 
2457      0         0         406b32    b4        ret 
2458      0         0         406994    b0        jmp 0xfffffffffffffcde
2459      0         0         401812    ac        ret 
245a      0         0         406873    aa        ret 
245b      0         0         404c17    aa        ret 
245c      0         0         402ed4    b6        push r13
245e      0         0         406ba6    b9        ret 
245f      0         0         404cce    b8        ret 
2460      0         0         406ae6    b3        ret 
2461      0         0         402bc9    b4        push rbx
2462      0         0         406b8f    b6        ret 
2463      0         0         401edb    b6        ret 
2464      0         0         402f64    b8        sub rsp, 8
2465      0         0         4035e5    ba        push r15
2466      0         0         401a2d    bd        ret 
2467      0         0         40791a    be        push rbp
2468      0         0         4019fd    ba        ret 
2469      0         0         407574    bb        push r12
246a      0         0         406bc9    bb        ret 
246b      0         0         404d04    bb        ret 
246c      0         0         4075a3    bd        sub rsp, 8
246d      0         0         404e85    c7        jmp 0xffffffffffffd44e
246e      0         0         406d8c    c5        ret 
246f      0         0         406d3c    c4        ret 
2470      0         0         403519    c5        push rbx
2471      0         0         403121    c7        push rbp
2472      0         0         4079c0    c8        push r15
2473      0         0         40315e    c4        push r14
2474      0         0         40235a    be        ret 
2475      0         0         404f60    c9        ret 
2476      0         0         406dd2    c8        ret 
2477      0         0         406df3    c8        ret 
2478      0         0         407991    c9        push rbp
2479      0         0         402d95    ca        push rbp
247a      0         0         4029a5    d0        mov esi, edi
247b      0         0         4029b4    d0        jmp 0xffffffffffffcf08
247c      0         0         407a92    d1        push r15
247d      0         0         405115    cc        ret 
247e      0         0         403250    cc        push rbp
247f      0         0         40514b    cc        ret 
2480      0         0         402dcd    cd        push rbp
2481      0         0         407a73    cd        ret 
2482      0         0         407a23    cb        ret 
2483      0         0         407512    cb        mov edx, dword [6 + 0x210848]
2484      0         0         403559    ce        cmp dword [rdi + 0x407c], 1
2485      0         0         40505c    ca        ret 
2486      0         0         40356d    ce        ret 
2487      0         0         407d0c    ce        jmp rax
2488      0         0         403589    d3        push rbp
2489      0         0         407047    d3        ret 
248a      0         0         4075bd    d2        sub rsp, 8
248b      0         0         406fe6    d2        jmp 0xffffffffffffcd06
248c      0         0         4032c1    d2        ret 
248d      0         0         4024f7    d1        ret 
248e      0         0         40253e    d1        ret 
248f      0         0         407ac9    d6        push rbx
2490      0         0         40725c    d7        xor eax, eax
2491      0         0         407290    da        push r12
2492      0         0         4051c5    d6        ret 
2495      0         0         402584    d7        ret 
2496      0         0         4035a8    d8        push r13
2497      0         0         407c9b    de        sub rsp, 0x28
2498      0         0         402797    de        ret 
249a      0         0         402638    d8        ret 
249b      0         0         402e5c    dd        jmp 0xfffffffffffff980
249c      0         0         40357d    dd        jmp 0xfffffffffffff971
249d      0         0         40272f    db        ret 
249e      0         0         4070df    db        ret 
249f      0         0         403312    da        ret 
24a0      0         0         402665    da        ret 
24a1      0         0         402c01    db        push r12
24a2      0         0         402e41    dd        cmp byte [rdi + 0x2078], 0
24a3      0         0         407667    df        push r15
24a4      0         0         40296a    e0        ret 
24a5      0         0         407116    e0        push r15
24a6      0         0         4028e7    df        ret 
24a7      0         0         4029c0    e2        sub rsp, 8
24a8      0         0         4029cf    e2        ret 
ffffffff  0         0         40302a    ffffffff  jmp 5
ffffffff  0         0         403039    ffffffff  jmp 5
ffffffff  0         0         4077b7    ffffffff  jmp 5
ffffffff  0         0         4077a8    ffffffff  jmp 5
ffffffff  0         0         402d2b    ffffffff  jmp 5
ffffffff  0         0         4074a6    ffffffff  jmp 5
ffffffff  0         0         402d3c    ffffffff  jmp 5
ffffffff  0         0         402d68    ffffffff  jmp 5
ffffffff  0         0         4074b1    ffffffff  jmp 5
ffffffff  0         0         4074c3    ffffffff  jmp 5
ffffffff  0         0         4074ce    ffffffff  jmp 5
ffffffff  0         0         402d78    ffffffff  jmp 5
ffffffff  0         0         402d89    ffffffff  jmp 5
ffffffff  0         0         402dc1    ffffffff  jmp 5
ffffffff  0         0         407538    ffffffff  jmp 5
ffffffff  0         0         407546    ffffffff  jmp 5
ffffffff  0         0         402e13    ffffffff  jmp 5
ffffffff  0         0         407568    ffffffff  jmp 5
ffffffff  0         0         407597    ffffffff  jmp 5
ffffffff  0         0         4075ac    ffffffff  jmp 5
ffffffff  0         0         4075c6    ffffffff  jmp 5
ffffffff  0         0         4075e0    ffffffff  jmp 5
ffffffff  0         0         407637    ffffffff  jmp 5
ffffffff  0         0         402e26    ffffffff  jmp 5
ffffffff  0         0         407659    ffffffff  jmp 5
ffffffff  0         0         407698    ffffffff  jmp 5
ffffffff  0         0         402e69    ffffffff  jmp 5
ffffffff  0         0         402e94    ffffffff  jmp 5
ffffffff  0         0         402eae    ffffffff  jmp 5
ffffffff  0         0         402ec8    ffffffff  jmp 5
ffffffff  0         0         402f21    ffffffff  jmp 5
ffffffff  0         0         402f3b    ffffffff  jmp 5
ffffffff  0         0         4076d8    ffffffff  jmp 5
ffffffff  0         0         402f58    ffffffff  jmp 5
ffffffff  0         0         4076e8    ffffffff  jmp 5
ffffffff  0         0         402f73    ffffffff  jmp 5
ffffffff  0         0         4076fd    ffffffff  jmp 5
ffffffff  0         0         402f82    ffffffff  jmp 5
ffffffff  0         0         407712    ffffffff  jmp 5
ffffffff  0         0         402f91    ffffffff  jmp 5
ffffffff  0         0         402fa0    ffffffff  jmp 5
ffffffff  0         0         407721    ffffffff  jmp 5
ffffffff  0         0         407730    ffffffff  jmp 5
ffffffff  0         0         402faf    ffffffff  jmp 5
ffffffff  0         0         402fbe    ffffffff  jmp 5
ffffffff  0         0         40773f    ffffffff  jmp 5
ffffffff  0         0         40774e    ffffffff  jmp 5
ffffffff  0         0         402fcd    ffffffff  jmp 5
ffffffff  0         0         402fdc    ffffffff  jmp 5
ffffffff  0         0         402feb    ffffffff  jmp 5
ffffffff  0         0         402ffd    ffffffff  jmp 5
ffffffff  0         0         40300c    ffffffff  jmp 5
ffffffff  0         0         40775d    ffffffff  jmp 5
ffffffff  0         0         40776c    ffffffff  jmp 5
ffffffff  0         0         40777b    ffffffff  jmp 5
ffffffff  0         0         40301b    ffffffff  jmp 5
ffffffff  0         0         40778a    ffffffff  jmp 5
ffffffff  0         0         407799    ffffffff  jmp 5
ffffffff  0         0         402ad9    ffffffff  jmp 5
ffffffff  0         0         4071b9    ffffffff  jmp 5
ffffffff  0         0         402af7    ffffffff  jmp 5
ffffffff  0         0         4071dc    ffffffff  jmp 5
ffffffff  0         0         407250    ffffffff  jmp 5
ffffffff  0         0         407284    ffffffff  jmp 5
ffffffff  0         0         4072b6    ffffffff  jmp 5
ffffffff  0         0         4072cf    ffffffff  jmp 5
ffffffff  0         0         402b1c    ffffffff  jmp 5
ffffffff  0         0         402b51    ffffffff  jmp 5
ffffffff  0         0         402b6a    ffffffff  jmp 5
ffffffff  0         0         4072fa    ffffffff  jmp 5
ffffffff  0         0         40730b    ffffffff  jmp 5
ffffffff  0         0         40731c    ffffffff  jmp 5
ffffffff  0         0         402b9d    ffffffff  jmp 5
ffffffff  0         0         402bb1    ffffffff  jmp 5
ffffffff  0         0         402be1    ffffffff  jmp 5
ffffffff  0         0         4073fe    ffffffff  jmp 5
ffffffff  0         0         40743d    ffffffff  jmp 5
ffffffff  0         0         402bf5    ffffffff  jmp 5
ffffffff  0         0         402c1c    ffffffff  jmp 5
ffffffff  0         0         402c40    ffffffff  jmp 5
ffffffff  0         0         407453    ffffffff  jmp 5
ffffffff  0         0         402c4f    ffffffff  jmp 5
ffffffff  0         0         402c68    ffffffff  jmp 5
ffffffff  0         0         402c87    ffffffff  jmp 5
ffffffff  0         0         40746d    ffffffff  jmp 5
ffffffff  0         0         402c9d    ffffffff  jmp 5
ffffffff  0         0         402cb4    ffffffff  jmp 5
ffffffff  0         0         402cd2    ffffffff  jmp 5
ffffffff  0         0         402d0b    ffffffff  jmp 5
ffffffff  0         0         407497    ffffffff  jmp 5
ffffffff  0         0         402999    ffffffff  jmp 5
ffffffff  0         0         407149    ffffffff  jmp 5
ffffffff  0         0         4029f2    ffffffff  jmp 5
ffffffff  0         0         402abe    ffffffff  jmp 5
ffffffff  0         0         40719b    ffffffff  jmp 5
ffffffff  0         0         402ac8    ffffffff  jmp 5
ffffffff  0         0         407100    ffffffff  jmp 5
ffffffff  0         0         403048    ffffffff  jmp 5
ffffffff  0         0         40305a    ffffffff  jmp 5
ffffffff  0         0         407802    ffffffff  jmp 5
ffffffff  0         0         407811    ffffffff  jmp 5
ffffffff  0         0         403069    ffffffff  jmp 5
ffffffff  0         0         407820    ffffffff  jmp 5
ffffffff  0         0         4077c6    ffffffff  jmp 5
ffffffff  0         0         4077d5    ffffffff  jmp 5
ffffffff  0         0         4077e4    ffffffff  jmp 5
ffffffff  0         0         4077f3    ffffffff  jmp 5
ffffffff  0         0         401a69    ffffffff  jmp 5
ffffffff  0         0         405388    ffffffff  jmp 5
ffffffff  0         0         40782f    ffffffff  jmp 5
ffffffff  0         0         40783e    ffffffff  jmp 5
ffffffff  0         0         403078    ffffffff  jmp 5
ffffffff  0         0         407850    ffffffff  jmp 5
ffffffff  0         0         40785f    ffffffff  jmp 5
ffffffff  0         0         40786e    ffffffff  jmp 5
ffffffff  0         0         403087    ffffffff  jmp 5
ffffffff  0         0         407880    ffffffff  jmp 5
ffffffff  0         0         40788f    ffffffff  jmp 5
ffffffff  0         0         403098    ffffffff  jmp 5
ffffffff  0         0         4030a7    ffffffff  jmp 5
ffffffff  0         0         4078a9    ffffffff  jmp 5
ffffffff  0         0         4030b7    ffffffff  jmp 5
ffffffff  0         0         4078c5    ffffffff  jmp 5
ffffffff  0         0         4078ea    ffffffff  jmp 5
ffffffff  0         0         407904    ffffffff  jmp 5
ffffffff  0         0         4030ce    ffffffff  jmp 5
ffffffff  0         0         4030d8    ffffffff  jmp 5
ffffffff  0         0         40792f    ffffffff  jmp 5
ffffffff  0         0         4030e6    ffffffff  jmp 5
ffffffff  0         0         407940    ffffffff  jmp 5
ffffffff  0         0         403103    ffffffff  jmp 5
ffffffff  0         0         407958    ffffffff  jmp 5
ffffffff  0         0         403115    ffffffff  jmp 5
ffffffff  0         0         40313d    ffffffff  jmp 5
ffffffff  0         0         407985    ffffffff  jmp 5
ffffffff  0         0         4079ab    ffffffff  jmp 5
ffffffff  0         0         40314c    ffffffff  jmp 5
ffffffff  0         0         4031df    ffffffff  jmp 5
ffffffff  0         0         4031eb    ffffffff  jmp 5
ffffffff  0         0         4079dc    ffffffff  jmp 5
ffffffff  0         0         4079ed    ffffffff  jmp 5
ffffffff  0         0         4079fe    ffffffff  jmp 5
ffffffff  0         0         407a0d    ffffffff  jmp 5
ffffffff  0         0         403209    ffffffff  jmp 5
ffffffff  0         0         403218    ffffffff  jmp 5
ffffffff  0         0         403235    ffffffff  jmp 5
ffffffff  0         0         407a40    ffffffff  jmp 5
ffffffff  0         0         407a50    ffffffff  jmp 5
ffffffff  0         0         403244    ffffffff  jmp 5
ffffffff  0         0         407a5f    ffffffff  jmp 5
ffffffff  0         0         407a7f    ffffffff  jmp 5
ffffffff  0         0         40327f    ffffffff  jmp 5
ffffffff  0         0         4032af    ffffffff  jmp 5
ffffffff  0         0         407ab7    ffffffff  jmp 5
ffffffff  0         0         4032dd    ffffffff  jmp 5
ffffffff  0         0         407ad2    ffffffff  jmp 5
ffffffff  0         0         407af5    ffffffff  jmp 5
ffffffff  0         0         4032f3    ffffffff  jmp 5
ffffffff  0         0         407b10    ffffffff  jmp 5
ffffffff  0         0         403326    ffffffff  jmp 5
ffffffff  0         0         40333c    ffffffff  jmp 5
ffffffff  0         0         403349    ffffffff  jmp 5
ffffffff  0         0         407b2f    ffffffff  jmp 5
ffffffff  0         0         407b55    ffffffff  jmp 5
ffffffff  0         0         40337f    ffffffff  jmp 5
ffffffff  0         0         40338a    ffffffff  jmp 5
ffffffff  0         0         407b97    ffffffff  jmp 5
ffffffff  0         0         4033bc    ffffffff  jmp 5
ffffffff  0         0         40346c    ffffffff  jmp 5
ffffffff  0         0         407bac    ffffffff  jmp 5
ffffffff  0         0         407bfe    ffffffff  jmp 5
ffffffff  0         0         407c1d    ffffffff  jmp 5
ffffffff  0         0         403481    ffffffff  jmp 5
ffffffff  0         0         40348c    ffffffff  jmp 5
ffffffff  0         0         4034d0    ffffffff  jmp 5
ffffffff  0         0         40354d    ffffffff  jmp 5
ffffffff  0         0         40359c    ffffffff  jmp 5
ffffffff  0         0         4035d0    ffffffff  jmp 5
ffffffff  0         0         407c36    ffffffff  jmp 5
ffffffff  0         0         403606    ffffffff  jmp 5
ffffffff  0         0         407c4f    ffffffff  jmp 5
ffffffff  0         0         40363e    ffffffff  jmp 5
ffffffff  0         0         407c6a    ffffffff  jmp 5
ffffffff  0         0         407c89    ffffffff  jmp 5
ffffffff  0         0         407ca9    ffffffff  jmp 5
ffffffff  0         0         407cbe    ffffffff  jmp 5
ffffffff  0         0         403658    ffffffff  jmp 5
ffffffff  0         0         407cf1    ffffffff  jmp 5
ffffffff  0         0         407d1c    ffffffff  jmp 5
ffffffff  0         0         407d37    ffffffff  jmp 5
